Microchip MPLAB XC8 Compiler V1.10 ()

Linker command line:

--edf=C:\Program Files\Microchip\xc8\v1.10\dat\en_msgs.txt -cs \
  -h+dist/default/debug\Framework.X.debug.sym -z -Q18F2680 -ol.obj \
  -Mdist/default/debug/Framework.X.debug.map -E1 -ver=XC8 -ACODE=00h-0FD7Fh \
  -ACONST=00h-0FD7Fh -ASMALLCONST=0D00h-0DFFhx240,0FD00h-0FD7Fh \
  -AMEDIUMCONST=0D00h-0FD7Fh -ACOMRAM=01h-05Fh -AABS1=00h-0CF3h \
  -ABIGRAM=01h-0CF3h -ARAM=060h-0FFh,0100h-01FFhx11,0C00h-0CF3h \
  -ABANK0=060h-0FFh -ABANK1=0100h-01FFh -ABANK2=0200h-02FFh \
  -ABANK3=0300h-03FFh -ABANK4=0400h-04FFh -ABANK5=0500h-05FFh \
  -ABANK6=0600h-06FFh -ABANK7=0700h-07FFh -ABANK8=0800h-08FFh \
  -ABANK9=0900h-09FFh -ABANK10=0A00h-0AFFh -ABANK11=0B00h-0BFFh \
  -ABANK12=0C00h-0CF3h -ASFR=0D00h-0DFFhx2,0F00h-0F5Fh,0F60h-0FFFh \
  -preset_vec=00h,intcode=08h,intcodelo=018h,powerup,init,end_init \
  -pramtop=0D00h -psmallconst=SMALLCONST -pmediumconst=MEDIUMCONST \
  -pconst=CONST -AFARRAM=00h-00h -ACONFIG=0300000h-030000Dh -pconfig=CONFIG \
  -AIDLOC=0200000h-0200007h -pidloc=IDLOC -AEEDATA=0F00000h-0F003FFh \
  -peeprom_data=EEDATA \
  -prdata=COMRAM,nvrram=COMRAM,nvbit=COMRAM,rbss=COMRAM,rbit=COMRAM \
  -pfarbss=FARRAM,fardata=FARRAM \
  -pintsave_regs=BIGRAM,bigbss=BIGRAM,bigdata=BIGRAM -pbss=RAM \
  -pidata=CODE,irdata=CODE,ibigdata=CODE,ifardata=CODE \
  C:\Users\ECE4534\AppData\Local\Temp\s3jo.obj \
  dist/default/debug\Framework.X.debug.obj 

Object code version is 3.10

Machine type is 18F2680

Call graph: (short form)




                Name                               Link     Load   Length Selector   Space Scale
C:\Users\ECE4534\AppData\Local\Temp\s3jo.obj
                end_init                             C2       C2        4        C       0
                reset_vec                             0        0        6        0       0
                idloc                            200000   200000        8   200000       0
                config                           300000   300000        E   300000       0
dist/default/debug\Framework.X.debug.obj
                intcodelo                            18       18       AA        C       0
                intcode                               8        8       10        4       0
                text50                             1B32     1B32       56        C       0
                text49                             1D1C     1D1C       38        C       0
                text48                              D26      D26      140        C       0
                text47                             107E     107E      106        C       0
                text46                             1EEC     1EEC       14        C       0
                text45                             1A26     1A26       5E        C       0
                text44                             1F36     1F36       12        C       0
                text43                             1264     1264       DA        C       0
                text42                             1F5A     1F5A        6        C       0
                text41                             1DB4     1DB4       30        C       0
                text40                             1E10     1E10       2C        C       0
                text39                             16C2     16C2       9A        C       0
                text38                             133E     133E       C8        C       0
                text37                               C6       C6      7C4        C       0
                intcode_body                       175C     175C       8C        C       0
                text35                             1C26     1C26       48        C       0
                text34                             1570     1570       B2        C       0
                text33                             1F24     1F24       12        C       0
                text32                             1F12     1F12       12        C       0
                text31                             1CE4     1CE4       38        C       0
                text30                             1E86     1E86       24        C       0
                text29                             1406     1406       B6        C       0
                text28                             1B88     1B88       50        C       0
                text26                             1622     1622       A0        C       0
                text25                             1ED8     1ED8       14        C       0
                text24                             1CAC     1CAC       38        C       0
                text23                             1ADC     1ADC       56        C       0
                text22                              F78      F78      106        C       0
                text21                             1DE4     1DE4       2C        C       0
                text20                              BE6      BE6      140        C       0
                text19                             186E     186E       86        C       0
                text18                             1BD8     1BD8       4E        C       0
                text17                             17E8     17E8       86        C       0
                text16                             1D84     1D84       30        C       0
                text15                              E66      E66      112        C       0
                text14                             1F48     1F48        A        C       0
                text13                             1D54     1D54       30        C       0
                text12                             1EC4     1EC4       14        C       0
                text11                             19C8     19C8       5E        C       0
                text10                             1A84     1A84       58        C       0
                text9                              1184     1184       E0        C       0
                text8                              14BC     14BC       B4        C       0
                text7                              1E62     1E62       24        C       0
                text6                              1C6E     1C6E       3E        C       0
                text5                              18F4     18F4       72        C       0
                text4                              1F00     1F00       12        C       0
                text3                              1966     1966       62        C       0
                text2                              1EAA     1EAA       1A        C       0
                text1                              1F52     1F52        8        C       0
                text0                               88A      88A      35C        C       0
                cstackCOMRAM                          1        1       2F        1       1
                cstackBANK0                          97       97       34       60       1
                cstackBANK1                         1A2      1A2       5A      100       1
                bssBANK1                            100      100       A2      100       1
                bssBANK0                             60       60       37       60       1
                bssCOMRAM                            30       30        4        1       1
                cinit                              1E3C     1E3C       26        C       0
                nvBANK0                              CB       CB        2       60       1
                nvCOMRAM                             34       34        2        1       1

TOTAL           Name                               Link     Load   Length     Space
        CLASS   CODE           
                end_init                             C2       C2        4         0
                intcodelo                            18       18       AA         0
                intcode                               8        8       10         0
                reset_vec                             0        0        6         0
                text50                             1B32     1B32       56         0
                text49                             1D1C     1D1C       38         0
                text48                              D26      D26      140         0
                text47                             107E     107E      106         0
                text46                             1EEC     1EEC       14         0
                text45                             1A26     1A26       5E         0
                text44                             1F36     1F36       12         0
                text43                             1264     1264       DA         0
                text42                             1F5A     1F5A        6         0
                text41                             1DB4     1DB4       30         0
                text40                             1E10     1E10       2C         0
                text39                             16C2     16C2       9A         0
                text38                             133E     133E       C8         0
                text37                               C6       C6      7C4         0
                intcode_body                       175C     175C       8C         0
                text35                             1C26     1C26       48         0
                text34                             1570     1570       B2         0
                text33                             1F24     1F24       12         0
                text32                             1F12     1F12       12         0
                text31                             1CE4     1CE4       38         0
                text30                             1E86     1E86       24         0
                text29                             1406     1406       B6         0
                text28                             1B88     1B88       50         0
                text26                             1622     1622       A0         0
                text25                             1ED8     1ED8       14         0
                text24                             1CAC     1CAC       38         0
                text23                             1ADC     1ADC       56         0
                text22                              F78      F78      106         0
                text21                             1DE4     1DE4       2C         0
                text20                              BE6      BE6      140         0
                text19                             186E     186E       86         0
                text18                             1BD8     1BD8       4E         0
                text17                             17E8     17E8       86         0
                text16                             1D84     1D84       30         0
                text15                              E66      E66      112         0
                text14                             1F48     1F48        A         0
                text13                             1D54     1D54       30         0
                text12                             1EC4     1EC4       14         0
                text11                             19C8     19C8       5E         0
                text10                             1A84     1A84       58         0
                text9                              1184     1184       E0         0
                text8                              14BC     14BC       B4         0
                text7                              1E62     1E62       24         0
                text6                              1C6E     1C6E       3E         0
                text5                              18F4     18F4       72         0
                text4                              1F00     1F00       12         0
                text3                              1966     1966       62         0
                text2                              1EAA     1EAA       1A         0
                text1                              1F52     1F52        8         0
                text0                               88A      88A      35C         0
                cinit                              1E3C     1E3C       26         0

        CLASS   CONST          

        CLASS   SMALLCONST     

        CLASS   MEDIUMCONST    

        CLASS   COMRAM         
                cstackCOMRAM                          1        1       2F         1
                bssCOMRAM                            30       30        4         1
                nvCOMRAM                             34       34        2         1

        CLASS   ABS1           

        CLASS   BIGRAM         

        CLASS   RAM            

        CLASS   BANK0          
                cstackBANK0                          97       97       34         1
                bssBANK0                             60       60       37         1
                nvBANK0                              CB       CB        2         1

        CLASS   BANK1          
                cstackBANK1                         1A2      1A2       5A         1
                bssBANK1                            100      100       A2         1

        CLASS   BANK2          

        CLASS   BANK3          

        CLASS   BANK4          

        CLASS   BANK5          

        CLASS   BANK6          

        CLASS   BANK7          

        CLASS   BANK8          

        CLASS   BANK9          

        CLASS   BANK10         

        CLASS   BANK11         

        CLASS   BANK12         

        CLASS   SFR            

        CLASS   FARRAM         

        CLASS   CONFIG         
                config                           300000   300000        E         0

        CLASS   IDLOC          
                idloc                            200000   200000        8         0

        CLASS   EEDATA         



SEGMENTS        Name                           Load    Length   Top    Selector   Space  Class

                reset_vec                      000000  000006  000006         0       0  CODE    
                cstackCOMRAM                   000001  000035  000036         1       1  COMRAM  
                intcode                        000008  000010  000018         4       0  CODE    
                intcodelo                      000018  001F48  001F60         C       0  CODE    
                bssBANK0                       000060  00006D  0000CD        60       1  BANK0   
                bssBANK1                       000100  0000FC  0001FC       100       1  BANK1   
                idloc                          200000  000008  200008    200000       0  IDLOC   
                config                         300000  00000E  30000E    300000       0  CONFIG  


UNUSED ADDRESS RANGES

        Name                Unused          Largest block    Delta
        BANK0            0000CD-0000FF               33
        BANK1            0001FC-0001FF                4
        BANK10           000A00-000AFF              100
        BANK11           000B00-000BFF              100
        BANK12           000C00-000CF3               F4
        BANK2            000200-0002FF              100
        BANK3            000300-0003FF              100
        BANK4            000400-0004FF              100
        BANK5            000500-0005FF              100
        BANK6            000600-0006FF              100
        BANK7            000700-0007FF              100
        BANK8            000800-0008FF              100
        BANK9            000900-0009FF              100
        BIGRAM           000036-00005F               2A
                         0000CD-0000FF               33
                         0001FC-000CF3              AF8
        CODE             000006-000007                2
                         001F60-00FD7F             DE20
        COMRAM           000036-00005F               2A
        CONST            000006-000007                2
                         001F60-00FD7F             DE20
        EEDATA           F00000-F003FF              400
        MEDIUMCONST      001F60-00FD7F             DE20
        RAM              0000CD-0000FF               33
                         0001FC-000CF3              100
        SFR              000D00-000FFF              100
        SMALLCONST       001F60-00FD7F              100

                                  Symbol Table

?_Delay1KTCYx                   cstackBANK0  0000CA
?_FromMainHigh_recvmsg          cstackBANK0  0000AF
?_FromMainHigh_sendmsg          cstackBANK1  0001B7
?_OpenTimer1                    cstackBANK0  0000CA
?_OpenUSART                     cstackBANK1  0001A2
?_ReadTimer1                    cstackCOMRAM 000001
?_ToMainHigh_recvmsg            cstackBANK1  0001BA
?_ToMainHigh_sendmsg            cstackBANK0  0000AD
?_ToMainLow_recvmsg             cstackBANK1  0001BA
?_ToMainLow_sendmsg             cstackCOMRAM 000017
?_WriteTimer0                   cstackBANK0  000097
?_WriteTimer1                   cstackCOMRAM 000001
?___lwmod                       cstackBANK1  0001A2
?_check_msg                     cstackBANK1  0001A2
?_handle_start                  cstackBANK0  000097
?_i2c_configure_slave           cstackBANK0  0000CA
?_in_high_int                   cstackBANK1  0001A2
?_in_low_int                    cstackBANK1  0001A4
?_in_main                       cstackBANK1  0001A6
?_init_i2c                      cstackBANK1  0001A2
?_init_queue                    cstackBANK1  0001A2
?_init_timer1_lthread           cstackBANK1  0001A2
?_init_uart_recv                cstackBANK1  0001A2
?_memcpy                        cstackBANK1  0001A2
?_recv_msg                      cstackBANK1  0001AC
?_send_msg                      cstackBANK1  0001AC
?_start_i2c_slave_reply         cstackBANK1  0001A2
?_timer0_lthread                cstackBANK1  0001A2
?_timer1_lthread                cstackBANK1  0001BB
?_uart_lthread                  cstackBANK1  0001A2
?i1_memcpy                      cstackCOMRAM 000001
?i1_send_msg                    cstackCOMRAM 00000B
?i2_check_msg                   cstackBANK0  000097
?i2_in_high_int                 cstackBANK0  000097
?i2_in_low_int                  cstackBANK0  000099
?i2_memcpy                      cstackBANK0  000097
?i2_recv_msg                    cstackBANK0  0000A1
?i2_send_msg                    cstackBANK0  0000A1
Delay1KTCYx@unit                cstackBANK0  0000CA
FromMainHigh_recvmsg@data       cstackBANK0  0000B2
FromMainHigh_recvmsg@maxlength  cstackBANK0  0000AF
FromMainHigh_recvmsg@msgtype    cstackBANK0  0000B0
FromMainHigh_sendmsg@data       cstackBANK1  0001B9
FromMainHigh_sendmsg@length     cstackBANK1  0001B7
FromMainHigh_sendmsg@msgtype    cstackBANK1  0001B8
OpenTimer1@config               cstackBANK0  0000CA
OpenUSART@config                cstackBANK1  0001A2
OpenUSART@spbrg                 cstackBANK1  0001A3
ReadTimer1@timer                cstackCOMRAM 000003
ReadUSART@data                  cstackCOMRAM 000001
ToMainHigh_recvmsg@data         cstackBANK1  0001BD
ToMainHigh_recvmsg@maxlength    cstackBANK1  0001BA
ToMainHigh_recvmsg@msgtype      cstackBANK1  0001BB
ToMainHigh_sendmsg@data         cstackBANK0  0000AF
ToMainHigh_sendmsg@length       cstackBANK0  0000AD
ToMainHigh_sendmsg@msgtype      cstackBANK0  0000AE
ToMainLow_recvmsg@data          cstackBANK1  0001BD
ToMainLow_recvmsg@maxlength     cstackBANK1  0001BA
ToMainLow_recvmsg@msgtype       cstackBANK1  0001BB
ToMainLow_sendmsg@data          cstackCOMRAM 000019
ToMainLow_sendmsg@length        cstackCOMRAM 000017
ToMainLow_sendmsg@msgtype       cstackCOMRAM 000018
WriteTimer0@timer               cstackBANK0  000099
WriteTimer0@timer0              cstackBANK0  000097
WriteTimer1@timer               cstackCOMRAM 000003
WriteTimer1@timer1              cstackCOMRAM 000001
_ABDEN                          (abs)        007DC0
_ABDOVF                         (abs)        007DC7
_ACKDT                          (abs)        007E2D
_ACKEN                          (abs)        007E2C
_ACKSTAT                        (abs)        007E2E
_ACQT0                          (abs)        007E03
_ACQT1                          (abs)        007E04
_ACQT2                          (abs)        007E05
_ADCON0                         (abs)        000FC2
_ADCON0bits                     (abs)        000FC2
_ADCON1                         (abs)        000FC1
_ADCON1bits                     (abs)        000FC1
_ADCON2                         (abs)        000FC0
_ADCON2bits                     (abs)        000FC0
_ADCS0                          (abs)        007E00
_ADCS1                          (abs)        007E01
_ADCS2                          (abs)        007E02
_ADDEN                          (abs)        007D5B
_ADEN                           (abs)        007D5B
_ADFM                           (abs)        007E07
_ADIE                           (abs)        007CEE
_ADIF                           (abs)        007CF6
_ADIP                           (abs)        007CFE
_ADON                           (abs)        007E10
_ADRES                          (abs)        000FC3
_ADRESH                         (abs)        000FC4
_ADRESL                         (abs)        000FC3
_AN0                            (abs)        007C00
_AN1                            (abs)        007C01
_AN10                           (abs)        007C08
_AN2                            (abs)        007C02
_AN3                            (abs)        007C03
_AN4                            (abs)        007C05
_AN8                            (abs)        007C09
_AN9                            (abs)        007C0C
_B0CON                          (abs)        000E20
_B0CONbits                      (abs)        000E20
_B0D0                           (abs)        000E26
_B0D00                          (abs)        007130
_B0D01                          (abs)        007131
_B0D02                          (abs)        007132
_B0D03                          (abs)        007133
_B0D04                          (abs)        007134
_B0D05                          (abs)        007135
_B0D06                          (abs)        007136
_B0D07                          (abs)        007137
_B0D0bits                       (abs)        000E26
_B0D1                           (abs)        000E27
_B0D10                          (abs)        007138
_B0D11                          (abs)        007139
_B0D12                          (abs)        00713A
_B0D13                          (abs)        00713B
_B0D14                          (abs)        00713C
_B0D15                          (abs)        00713D
_B0D16                          (abs)        00713E
_B0D17                          (abs)        00713F
_B0D1bits                       (abs)        000E27
_B0D2                           (abs)        000E28
_B0D20                          (abs)        007140
_B0D21                          (abs)        007141
_B0D22                          (abs)        007142
_B0D23                          (abs)        007143
_B0D24                          (abs)        007144
_B0D25                          (abs)        007145
_B0D26                          (abs)        007146
_B0D27                          (abs)        007147
_B0D2bits                       (abs)        000E28
_B0D3                           (abs)        000E29
_B0D30                          (abs)        007148
_B0D31                          (abs)        007149
_B0D32                          (abs)        00714A
_B0D33                          (abs)        00714B
_B0D34                          (abs)        00714C
_B0D35                          (abs)        00714D
_B0D36                          (abs)        00714E
_B0D37                          (abs)        00714F
_B0D3bits                       (abs)        000E29
_B0D4                           (abs)        000E2A
_B0D40                          (abs)        007150
_B0D41                          (abs)        007151
_B0D42                          (abs)        007152
_B0D43                          (abs)        007153
_B0D44                          (abs)        007154
_B0D45                          (abs)        007155
_B0D46                          (abs)        007156
_B0D47                          (abs)        007157
_B0D4bits                       (abs)        000E2A
_B0D5                           (abs)        000E2B
_B0D50                          (abs)        007158
_B0D51                          (abs)        007159
_B0D52                          (abs)        00715A
_B0D53                          (abs)        00715B
_B0D54                          (abs)        00715C
_B0D55                          (abs)        00715D
_B0D56                          (abs)        00715E
_B0D57                          (abs)        00715F
_B0D5bits                       (abs)        000E2B
_B0D6                           (abs)        000E2C
_B0D60                          (abs)        007160
_B0D61                          (abs)        007161
_B0D62                          (abs)        007162
_B0D63                          (abs)        007163
_B0D64                          (abs)        007164
_B0D65                          (abs)        007165
_B0D66                          (abs)        007166
_B0D67                          (abs)        007167
_B0D6bits                       (abs)        000E2C
_B0D7                           (abs)        000E2D
_B0D70                          (abs)        007168
_B0D71                          (abs)        007169
_B0D72                          (abs)        00716A
_B0D73                          (abs)        00716B
_B0D74                          (abs)        00716C
_B0D75                          (abs)        00716D
_B0D76                          (abs)        00716E
_B0D77                          (abs)        00716F
_B0D7bits                       (abs)        000E2D
_B0DLC                          (abs)        000E25
_B0DLC0                         (abs)        007128
_B0DLC1                         (abs)        007129
_B0DLC2                         (abs)        00712A
_B0DLC3                         (abs)        00712B
_B0DLCbits                      (abs)        000E25
_B0EID0                         (abs)        007120
_B0EID1                         (abs)        007121
_B0EID10                        (abs)        00711A
_B0EID11                        (abs)        00711B
_B0EID12                        (abs)        00711C
_B0EID13                        (abs)        00711D
_B0EID14                        (abs)        00711E
_B0EID15                        (abs)        00711F
_B0EID16                        (abs)        007110
_B0EID17                        (abs)        007111
_B0EID2                         (abs)        007122
_B0EID3                         (abs)        007123
_B0EID4                         (abs)        007124
_B0EID5                         (abs)        007125
_B0EID6                         (abs)        007126
_B0EID7                         (abs)        007127
_B0EID8                         (abs)        007118
_B0EID9                         (abs)        007119
_B0EIDH                         (abs)        000E23
_B0EIDHbits                     (abs)        000E23
_B0EIDL                         (abs)        000E24
_B0EIDLbits                     (abs)        000E24
_B0EXID                         (abs)        007113
_B0FILHIT0                      (abs)        007100
_B0FILHIT1                      (abs)        007101
_B0FILHIT2                      (abs)        007102
_B0FILHIT3                      (abs)        007103
_B0FILHIT4                      (abs)        007104
_B0IE                           (abs)        006FD2
_B0RB0                          (abs)        00712C
_B0RB1                          (abs)        00712D
_B0RTREN                        (abs)        007102
_B0RTRRO                        (abs)        007105
_B0RXFUL                        (abs)        007107
_B0RXM1                         (abs)        007106
_B0RXRTR                        (abs)        00712E
_B0SID0                         (abs)        007115
_B0SID1                         (abs)        007116
_B0SID10                        (abs)        00710F
_B0SID2                         (abs)        007117
_B0SID3                         (abs)        007108
_B0SID4                         (abs)        007109
_B0SID5                         (abs)        00710A
_B0SID6                         (abs)        00710B
_B0SID7                         (abs)        00710C
_B0SID8                         (abs)        00710D
_B0SID9                         (abs)        00710E
_B0SIDH                         (abs)        000E21
_B0SIDHbits                     (abs)        000E21
_B0SIDL                         (abs)        000E22
_B0SIDLbits                     (abs)        000E22
_B0SRR                          (abs)        007114
_B0TXABT                        (abs)        007106
_B0TXB3IF                       (abs)        007107
_B0TXEN                         (abs)        006FC2
_B0TXERR                        (abs)        007104
_B0TXLARB                       (abs)        007105
_B0TXPRI0                       (abs)        007100
_B0TXPRI1                       (abs)        007101
_B0TXREQ                        (abs)        007103
_B1CON                          (abs)        000E30
_B1CONbits                      (abs)        000E30
_B1D0                           (abs)        000E36
_B1D00                          (abs)        0071B0
_B1D01                          (abs)        0071B1
_B1D02                          (abs)        0071B2
_B1D03                          (abs)        0071B3
_B1D04                          (abs)        0071B4
_B1D05                          (abs)        0071B5
_B1D06                          (abs)        0071B6
_B1D07                          (abs)        0071B7
_B1D0bits                       (abs)        000E36
_B1D1                           (abs)        000E37
_B1D10                          (abs)        0071B8
_B1D11                          (abs)        0071B9
_B1D12                          (abs)        0071BA
_B1D13                          (abs)        0071BB
_B1D14                          (abs)        0071BC
_B1D15                          (abs)        0071BD
_B1D16                          (abs)        0071BE
_B1D17                          (abs)        0071BF
_B1D1bits                       (abs)        000E37
_B1D2                           (abs)        000E38
_B1D20                          (abs)        0071C0
_B1D21                          (abs)        0071C1
_B1D22                          (abs)        0071C2
_B1D23                          (abs)        0071C3
_B1D24                          (abs)        0071C4
_B1D25                          (abs)        0071C5
_B1D26                          (abs)        0071C6
_B1D27                          (abs)        0071C7
_B1D2bits                       (abs)        000E38
_B1D3                           (abs)        000E39
_B1D30                          (abs)        0071C8
_B1D31                          (abs)        0071C9
_B1D32                          (abs)        0071CA
_B1D33                          (abs)        0071CB
_B1D34                          (abs)        0071CC
_B1D35                          (abs)        0071CD
_B1D36                          (abs)        0071CE
_B1D37                          (abs)        0071CF
_B1D3bits                       (abs)        000E39
_B1D4                           (abs)        000E3A
_B1D40                          (abs)        0071D0
_B1D41                          (abs)        0071D1
_B1D42                          (abs)        0071D2
_B1D43                          (abs)        0071D3
_B1D44                          (abs)        0071D4
_B1D45                          (abs)        0071D5
_B1D46                          (abs)        0071D6
_B1D47                          (abs)        0071D7
_B1D4bits                       (abs)        000E3A
_B1D5                           (abs)        000E3B
_B1D50                          (abs)        0071D8
_B1D51                          (abs)        0071D9
_B1D52                          (abs)        0071DA
_B1D53                          (abs)        0071DB
_B1D54                          (abs)        0071DC
_B1D55                          (abs)        0071DD
_B1D56                          (abs)        0071DE
_B1D57                          (abs)        0071DF
_B1D5bits                       (abs)        000E3B
_B1D6                           (abs)        000E3C
_B1D60                          (abs)        0071E0
_B1D61                          (abs)        0071E1
_B1D62                          (abs)        0071E2
_B1D63                          (abs)        0071E3
_B1D64                          (abs)        0071E4
_B1D65                          (abs)        0071E5
_B1D66                          (abs)        0071E6
_B1D67                          (abs)        0071E7
_B1D6bits                       (abs)        000E3C
_B1D7                           (abs)        000E3D
_B1D70                          (abs)        0071E8
_B1D71                          (abs)        0071E9
_B1D72                          (abs)        0071EA
_B1D73                          (abs)        0071EB
_B1D74                          (abs)        0071EC
_B1D75                          (abs)        0071ED
_B1D76                          (abs)        0071EE
_B1D77                          (abs)        0071EF
_B1D7bits                       (abs)        000E3D
_B1DLC                          (abs)        000E35
_B1DLC0                         (abs)        0071A8
_B1DLC1                         (abs)        0071A9
_B1DLC2                         (abs)        0071AA
_B1DLC3                         (abs)        0071AB
_B1DLCbits                      (abs)        000E35
_B1EID0                         (abs)        0071A0
_B1EID1                         (abs)        0071A1
_B1EID10                        (abs)        00719A
_B1EID11                        (abs)        00719B
_B1EID12                        (abs)        00719C
_B1EID13                        (abs)        00719D
_B1EID14                        (abs)        00719E
_B1EID15                        (abs)        00719F
_B1EID16                        (abs)        007190
_B1EID17                        (abs)        007191
_B1EID2                         (abs)        0071A2
_B1EID3                         (abs)        0071A3
_B1EID4                         (abs)        0071A4
_B1EID5                         (abs)        0071A5
_B1EID6                         (abs)        0071A6
_B1EID7                         (abs)        0071A7
_B1EID8                         (abs)        007198
_B1EID9                         (abs)        007199
_B1EIDH                         (abs)        000E33
_B1EIDHbits                     (abs)        000E33
_B1EIDL                         (abs)        000E34
_B1EIDLbits                     (abs)        000E34
_B1EXID                         (abs)        007193
_B1FILHIT0                      (abs)        007180
_B1FILHIT1                      (abs)        007181
_B1FILHIT2                      (abs)        007182
_B1FILHIT3                      (abs)        007183
_B1FILHIT4                      (abs)        007184
_B1IE                           (abs)        006FD3
_B1RB0                          (abs)        0071AC
_B1RB1                          (abs)        0071AD
_B1RTREN                        (abs)        007182
_B1RTRRO                        (abs)        007185
_B1RXFUL                        (abs)        007187
_B1RXM1                         (abs)        007186
_B1RXRTR                        (abs)        0071AE
_B1SID0                         (abs)        007195
_B1SID1                         (abs)        007196
_B1SID10                        (abs)        00718F
_B1SID2                         (abs)        007197
_B1SID3                         (abs)        007188
_B1SID4                         (abs)        007189
_B1SID5                         (abs)        00718A
_B1SID6                         (abs)        00718B
_B1SID7                         (abs)        00718C
_B1SID8                         (abs)        00718D
_B1SID9                         (abs)        00718E
_B1SIDH                         (abs)        000E31
_B1SIDHbits                     (abs)        000E31
_B1SIDL                         (abs)        000E32
_B1SIDLbits                     (abs)        000E32
_B1SRR                          (abs)        007194
_B1TXABT                        (abs)        007186
_B1TXB3IF                       (abs)        007187
_B1TXEN                         (abs)        006FC3
_B1TXERR                        (abs)        007184
_B1TXLARB                       (abs)        007185
_B1TXPRI0                       (abs)        007180
_B1TXPRI1                       (abs)        007181
_B1TXREQ                        (abs)        007183
_B2CON                          (abs)        000E40
_B2CONbits                      (abs)        000E40
_B2D0                           (abs)        000E46
_B2D00                          (abs)        007230
_B2D01                          (abs)        007231
_B2D02                          (abs)        007232
_B2D03                          (abs)        007233
_B2D04                          (abs)        007234
_B2D05                          (abs)        007235
_B2D06                          (abs)        007236
_B2D07                          (abs)        007237
_B2D0bits                       (abs)        000E46
_B2D1                           (abs)        000E47
_B2D10                          (abs)        007238
_B2D11                          (abs)        007239
_B2D12                          (abs)        00723A
_B2D13                          (abs)        00723B
_B2D14                          (abs)        00723C
_B2D15                          (abs)        00723D
_B2D16                          (abs)        00723E
_B2D17                          (abs)        00723F
_B2D1bits                       (abs)        000E47
_B2D2                           (abs)        000E48
_B2D20                          (abs)        007240
_B2D21                          (abs)        007241
_B2D22                          (abs)        007242
_B2D23                          (abs)        007243
_B2D24                          (abs)        007244
_B2D25                          (abs)        007245
_B2D26                          (abs)        007246
_B2D27                          (abs)        007247
_B2D2bits                       (abs)        000E48
_B2D3                           (abs)        000E49
_B2D30                          (abs)        007248
_B2D31                          (abs)        007249
_B2D32                          (abs)        00724A
_B2D33                          (abs)        00724B
_B2D34                          (abs)        00724C
_B2D35                          (abs)        00724D
_B2D36                          (abs)        00724E
_B2D37                          (abs)        00724F
_B2D3bits                       (abs)        000E49
_B2D4                           (abs)        000E4A
_B2D40                          (abs)        007250
_B2D41                          (abs)        007251
_B2D42                          (abs)        007252
_B2D43                          (abs)        007253
_B2D44                          (abs)        007254
_B2D45                          (abs)        007255
_B2D46                          (abs)        007256
_B2D47                          (abs)        007257
_B2D4bits                       (abs)        000E4A
_B2D5                           (abs)        000E4B
_B2D50                          (abs)        007258
_B2D51                          (abs)        007259
_B2D52                          (abs)        00725A
_B2D53                          (abs)        00725B
_B2D54                          (abs)        00725C
_B2D55                          (abs)        00725D
_B2D56                          (abs)        00725E
_B2D57                          (abs)        00725F
_B2D5bits                       (abs)        000E4B
_B2D6                           (abs)        000E4C
_B2D60                          (abs)        007260
_B2D61                          (abs)        007261
_B2D62                          (abs)        007262
_B2D63                          (abs)        007263
_B2D64                          (abs)        007264
_B2D65                          (abs)        007265
_B2D66                          (abs)        007266
_B2D67                          (abs)        007267
_B2D6bits                       (abs)        000E4C
_B2D7                           (abs)        000E4D
_B2D70                          (abs)        007268
_B2D71                          (abs)        007269
_B2D72                          (abs)        00726A
_B2D73                          (abs)        00726B
_B2D74                          (abs)        00726C
_B2D75                          (abs)        00726D
_B2D76                          (abs)        00726E
_B2D77                          (abs)        00726F
_B2D7bits                       (abs)        000E4D
_B2DLC                          (abs)        000E45
_B2DLC0                         (abs)        007228
_B2DLC1                         (abs)        007229
_B2DLC2                         (abs)        00722A
_B2DLC3                         (abs)        00722B
_B2DLCbits                      (abs)        000E45
_B2EID0                         (abs)        007220
_B2EID1                         (abs)        007221
_B2EID10                        (abs)        00721A
_B2EID11                        (abs)        00721B
_B2EID12                        (abs)        00721C
_B2EID13                        (abs)        00721D
_B2EID14                        (abs)        00721E
_B2EID15                        (abs)        00721F
_B2EID16                        (abs)        007210
_B2EID17                        (abs)        007211
_B2EID2                         (abs)        007222
_B2EID3                         (abs)        007223
_B2EID4                         (abs)        007224
_B2EID5                         (abs)        007225
_B2EID6                         (abs)        007226
_B2EID7                         (abs)        007227
_B2EID8                         (abs)        007218
_B2EID9                         (abs)        007219
_B2EIDH                         (abs)        000E43
_B2EIDHbits                     (abs)        000E43
_B2EIDL                         (abs)        000E44
_B2EIDLbits                     (abs)        000E44
_B2EXID                         (abs)        007213
_B2EXIDE                        (abs)        007213
_B2FILHIT0                      (abs)        007200
_B2FILHIT1                      (abs)        007201
_B2FILHIT2                      (abs)        007202
_B2FILHIT3                      (abs)        007203
_B2FILHIT4                      (abs)        007204
_B2IE                           (abs)        006FD4
_B2RB0                          (abs)        00722C
_B2RB1                          (abs)        00722D
_B2RTREN                        (abs)        007202
_B2RTRRO                        (abs)        007205
_B2RXFUL                        (abs)        007207
_B2RXM1                         (abs)        007206
_B2RXRTR                        (abs)        00722E
_B2SID0                         (abs)        007215
_B2SID1                         (abs)        007216
_B2SID10                        (abs)        00720F
_B2SID2                         (abs)        007217
_B2SID3                         (abs)        007208
_B2SID4                         (abs)        007209
_B2SID5                         (abs)        00720A
_B2SID6                         (abs)        00720B
_B2SID7                         (abs)        00720C
_B2SID8                         (abs)        00720D
_B2SID9                         (abs)        00720E
_B2SIDH                         (abs)        000E41
_B2SIDHbits                     (abs)        000E41
_B2SIDL                         (abs)        000E42
_B2SIDLbits                     (abs)        000E42
_B2SRR                          (abs)        007214
_B2TXABT                        (abs)        007206
_B2TXB3IF                       (abs)        007207
_B2TXEN                         (abs)        006FC4
_B2TXERR                        (abs)        007204
_B2TXLARB                       (abs)        007205
_B2TXPRI0                       (abs)        007200
_B2TXPRI1                       (abs)        007201
_B2TXREQ                        (abs)        007203
_B3CON                          (abs)        000E50
_B3CONbits                      (abs)        000E50
_B3D0                           (abs)        000E56
_B3D00                          (abs)        0072B0
_B3D01                          (abs)        0072B1
_B3D02                          (abs)        0072B2
_B3D03                          (abs)        0072B3
_B3D04                          (abs)        0072B4
_B3D05                          (abs)        0072B5
_B3D06                          (abs)        0072B6
_B3D07                          (abs)        0072B7
_B3D0bits                       (abs)        000E56
_B3D1                           (abs)        000E57
_B3D10                          (abs)        0072B8
_B3D11                          (abs)        0072B9
_B3D12                          (abs)        0072BA
_B3D13                          (abs)        0072BB
_B3D14                          (abs)        0072BC
_B3D15                          (abs)        0072BD
_B3D16                          (abs)        0072BE
_B3D17                          (abs)        0072BF
_B3D1bits                       (abs)        000E57
_B3D2                           (abs)        000E58
_B3D20                          (abs)        0072C0
_B3D21                          (abs)        0072C1
_B3D22                          (abs)        0072C2
_B3D23                          (abs)        0072C3
_B3D24                          (abs)        0072C4
_B3D25                          (abs)        0072C5
_B3D26                          (abs)        0072C6
_B3D27                          (abs)        0072C7
_B3D2bits                       (abs)        000E58
_B3D3                           (abs)        000E59
_B3D30                          (abs)        0072C8
_B3D31                          (abs)        0072C9
_B3D32                          (abs)        0072CA
_B3D33                          (abs)        0072CB
_B3D34                          (abs)        0072CC
_B3D35                          (abs)        0072CD
_B3D36                          (abs)        0072CE
_B3D37                          (abs)        0072CF
_B3D3bits                       (abs)        000E59
_B3D4                           (abs)        000E5A
_B3D40                          (abs)        0072D0
_B3D41                          (abs)        0072D1
_B3D42                          (abs)        0072D2
_B3D43                          (abs)        0072D3
_B3D44                          (abs)        0072D4
_B3D45                          (abs)        0072D5
_B3D46                          (abs)        0072D6
_B3D47                          (abs)        0072D7
_B3D4bits                       (abs)        000E5A
_B3D5                           (abs)        000E5B
_B3D50                          (abs)        0072D8
_B3D51                          (abs)        0072D9
_B3D52                          (abs)        0072DA
_B3D53                          (abs)        0072DB
_B3D54                          (abs)        0072DC
_B3D55                          (abs)        0072DD
_B3D56                          (abs)        0072DE
_B3D57                          (abs)        0072DF
_B3D5bits                       (abs)        000E5B
_B3D6                           (abs)        000E5C
_B3D60                          (abs)        0072E0
_B3D61                          (abs)        0072E1
_B3D62                          (abs)        0072E2
_B3D63                          (abs)        0072E3
_B3D64                          (abs)        0072E4
_B3D65                          (abs)        0072E5
_B3D66                          (abs)        0072E6
_B3D67                          (abs)        0072E7
_B3D6bits                       (abs)        000E5C
_B3D7                           (abs)        000E5D
_B3D70                          (abs)        0072E8
_B3D71                          (abs)        0072E9
_B3D72                          (abs)        0072EA
_B3D73                          (abs)        0072EB
_B3D74                          (abs)        0072EC
_B3D75                          (abs)        0072ED
_B3D76                          (abs)        0072EE
_B3D77                          (abs)        0072EF
_B3D7bits                       (abs)        000E5D
_B3DLC                          (abs)        000E55
_B3DLC0                         (abs)        0072A8
_B3DLC1                         (abs)        0072A9
_B3DLC2                         (abs)        0072AA
_B3DLC3                         (abs)        0072AB
_B3DLCbits                      (abs)        000E55
_B3EID0                         (abs)        0072A0
_B3EID1                         (abs)        0072A1
_B3EID10                        (abs)        00729A
_B3EID11                        (abs)        00729B
_B3EID12                        (abs)        00729C
_B3EID13                        (abs)        00729D
_B3EID14                        (abs)        00729E
_B3EID15                        (abs)        00729F
_B3EID16                        (abs)        007290
_B3EID17                        (abs)        007291
_B3EID2                         (abs)        0072A2
_B3EID3                         (abs)        0072A3
_B3EID4                         (abs)        0072A4
_B3EID5                         (abs)        0072A5
_B3EID6                         (abs)        0072A6
_B3EID7                         (abs)        0072A7
_B3EID8                         (abs)        007298
_B3EID9                         (abs)        007299
_B3EIDH                         (abs)        000E53
_B3EIDHbits                     (abs)        000E53
_B3EIDL                         (abs)        000E54
_B3EIDLbits                     (abs)        000E54
_B3EXID                         (abs)        007293
_B3EXIDE                        (abs)        007293
_B3FILHIT0                      (abs)        007280
_B3FILHIT1                      (abs)        007281
_B3FILHIT2                      (abs)        007282
_B3FILHIT3                      (abs)        007283
_B3FILHIT4                      (abs)        007284
_B3IE                           (abs)        006FD5
_B3RB0                          (abs)        0072AC
_B3RB1                          (abs)        0072AD
_B3RTREN                        (abs)        007282
_B3RTRRO                        (abs)        007285
_B3RXFUL                        (abs)        007287
_B3RXM1                         (abs)        007286
_B3RXRTR                        (abs)        0072AE
_B3SID0                         (abs)        007295
_B3SID1                         (abs)        007296
_B3SID10                        (abs)        00728F
_B3SID2                         (abs)        007297
_B3SID3                         (abs)        007288
_B3SID4                         (abs)        007289
_B3SID5                         (abs)        00728A
_B3SID6                         (abs)        00728B
_B3SID7                         (abs)        00728C
_B3SID8                         (abs)        00728D
_B3SID9                         (abs)        00728E
_B3SIDH                         (abs)        000E51
_B3SIDHbits                     (abs)        000E51
_B3SIDL                         (abs)        000E52
_B3SIDLbits                     (abs)        000E52
_B3SRR                          (abs)        007294
_B3TXABT                        (abs)        007286
_B3TXB3IF                       (abs)        007287
_B3TXEN                         (abs)        006FC5
_B3TXERR                        (abs)        007284
_B3TXLARB                       (abs)        007285
_B3TXPRI0                       (abs)        007280
_B3TXPRI1                       (abs)        007281
_B3TXREQ                        (abs)        007283
_B46D77                         (abs)        00736F
_B4CON                          (abs)        000E60
_B4CONbits                      (abs)        000E60
_B4D0                           (abs)        000E66
_B4D00                          (abs)        007330
_B4D01                          (abs)        007331
_B4D02                          (abs)        007332
_B4D03                          (abs)        007333
_B4D04                          (abs)        007334
_B4D05                          (abs)        007335
_B4D06                          (abs)        007336
_B4D07                          (abs)        007337
_B4D0bits                       (abs)        000E66
_B4D1                           (abs)        000E67
_B4D10                          (abs)        007338
_B4D11                          (abs)        007339
_B4D12                          (abs)        00733A
_B4D13                          (abs)        00733B
_B4D14                          (abs)        00733C
_B4D15                          (abs)        00733D
_B4D16                          (abs)        00733E
_B4D17                          (abs)        00733F
_B4D1bits                       (abs)        000E67
_B4D2                           (abs)        000E68
_B4D20                          (abs)        007340
_B4D21                          (abs)        007341
_B4D22                          (abs)        007342
_B4D23                          (abs)        007343
_B4D24                          (abs)        007344
_B4D25                          (abs)        007345
_B4D26                          (abs)        007346
_B4D27                          (abs)        007347
_B4D2bits                       (abs)        000E68
_B4D3                           (abs)        000E69
_B4D30                          (abs)        007348
_B4D31                          (abs)        007349
_B4D32                          (abs)        00734A
_B4D33                          (abs)        00734B
_B4D34                          (abs)        00734C
_B4D35                          (abs)        00734D
_B4D36                          (abs)        00734E
_B4D37                          (abs)        00734F
_B4D3bits                       (abs)        000E69
_B4D4                           (abs)        000E6A
_B4D40                          (abs)        007350
_B4D41                          (abs)        007351
_B4D42                          (abs)        007352
_B4D43                          (abs)        007353
_B4D44                          (abs)        007354
_B4D45                          (abs)        007355
_B4D46                          (abs)        007356
_B4D47                          (abs)        007357
_B4D4bits                       (abs)        000E6A
_B4D5                           (abs)        000E6B
_B4D50                          (abs)        007358
_B4D51                          (abs)        007359
_B4D52                          (abs)        00735A
_B4D53                          (abs)        00735B
_B4D54                          (abs)        00735C
_B4D55                          (abs)        00735D
_B4D56                          (abs)        00735E
_B4D57                          (abs)        00735F
_B4D5bits                       (abs)        000E6B
_B4D6                           (abs)        000E6C
_B4D60                          (abs)        007360
_B4D61                          (abs)        007361
_B4D62                          (abs)        007362
_B4D63                          (abs)        007363
_B4D64                          (abs)        007364
_B4D65                          (abs)        007365
_B4D66                          (abs)        007366
_B4D67                          (abs)        007367
_B4D6bits                       (abs)        000E6C
_B4D7                           (abs)        000E6D
_B4D70                          (abs)        007368
_B4D71                          (abs)        007369
_B4D72                          (abs)        00736A
_B4D73                          (abs)        00736B
_B4D74                          (abs)        00736C
_B4D75                          (abs)        00736D
_B4D76                          (abs)        00736E
_B4D77                          (abs)        00736F
_B4D7bits                       (abs)        000E6D
_B4DLC                          (abs)        000E65
_B4DLC0                         (abs)        007328
_B4DLC1                         (abs)        007329
_B4DLC2                         (abs)        00732A
_B4DLC3                         (abs)        00732B
_B4DLCbits                      (abs)        000E65
_B4EID0                         (abs)        007320
_B4EID1                         (abs)        007321
_B4EID10                        (abs)        00731A
_B4EID11                        (abs)        00731B
_B4EID12                        (abs)        00731C
_B4EID13                        (abs)        00731D
_B4EID14                        (abs)        00731E
_B4EID15                        (abs)        00731F
_B4EID16                        (abs)        007310
_B4EID17                        (abs)        007311
_B4EID2                         (abs)        007322
_B4EID3                         (abs)        007323
_B4EID4                         (abs)        007324
_B4EID5                         (abs)        007325
_B4EID6                         (abs)        007326
_B4EID7                         (abs)        007327
_B4EID8                         (abs)        007318
_B4EID9                         (abs)        007319
_B4EIDH                         (abs)        000E63
_B4EIDHbits                     (abs)        000E63
_B4EIDL                         (abs)        000E64
_B4EIDLbits                     (abs)        000E64
_B4EXID                         (abs)        007313
_B4EXIDE                        (abs)        007313
_B4FILHIT0                      (abs)        007300
_B4FILHIT1                      (abs)        007301
_B4FILHIT2                      (abs)        007302
_B4FILHIT3                      (abs)        007303
_B4FILHIT4                      (abs)        007304
_B4IE                           (abs)        006FD6
_B4RB0                          (abs)        00732C
_B4RB1                          (abs)        00732D
_B4RTREN                        (abs)        007302
_B4RTRRO                        (abs)        007305
_B4RXFUL                        (abs)        007307
_B4RXM1                         (abs)        007306
_B4RXRTR                        (abs)        00732E
_B4SID0                         (abs)        007315
_B4SID1                         (abs)        007316
_B4SID10                        (abs)        00730F
_B4SID2                         (abs)        007317
_B4SID3                         (abs)        007308
_B4SID4                         (abs)        007309
_B4SID5                         (abs)        00730A
_B4SID6                         (abs)        00730B
_B4SID7                         (abs)        00730C
_B4SID8                         (abs)        00730D
_B4SID9                         (abs)        00730E
_B4SIDH                         (abs)        000E61
_B4SIDHbits                     (abs)        000E61
_B4SIDL                         (abs)        000E62
_B4SIDLbits                     (abs)        000E62
_B4SRR                          (abs)        007314
_B4TXABT                        (abs)        007306
_B4TXB3IF                       (abs)        007307
_B4TXEN                         (abs)        006FC6
_B4TXERR                        (abs)        007304
_B4TXLARB                       (abs)        007305
_B4TXPRI0                       (abs)        007300
_B4TXPRI1                       (abs)        007301
_B4TXREQ                        (abs)        007303
_B57D07                         (abs)        0073B7
_B57D23                         (abs)        0073C3
_B5CON                          (abs)        000E70
_B5CONbits                      (abs)        000E70
_B5D0                           (abs)        000E76
_B5D00                          (abs)        0073B0
_B5D01                          (abs)        0073B1
_B5D02                          (abs)        0073B2
_B5D03                          (abs)        0073B3
_B5D04                          (abs)        0073B4
_B5D05                          (abs)        0073B5
_B5D06                          (abs)        0073B6
_B5D07                          (abs)        0073B7
_B5D0bits                       (abs)        000E76
_B5D1                           (abs)        000E77
_B5D10                          (abs)        0073B8
_B5D11                          (abs)        0073B9
_B5D12                          (abs)        0073BA
_B5D13                          (abs)        0073BB
_B5D14                          (abs)        0073BC
_B5D15                          (abs)        0073BD
_B5D16                          (abs)        0073BE
_B5D17                          (abs)        0073BF
_B5D1bits                       (abs)        000E77
_B5D2                           (abs)        000E78
_B5D20                          (abs)        0073C0
_B5D21                          (abs)        0073C1
_B5D22                          (abs)        0073C2
_B5D23                          (abs)        0073C3
_B5D24                          (abs)        0073C4
_B5D25                          (abs)        0073C5
_B5D26                          (abs)        0073C6
_B5D27                          (abs)        0073C7
_B5D2bits                       (abs)        000E78
_B5D3                           (abs)        000E79
_B5D30                          (abs)        0073C8
_B5D31                          (abs)        0073C9
_B5D32                          (abs)        0073CA
_B5D33                          (abs)        0073CB
_B5D34                          (abs)        0073CC
_B5D35                          (abs)        0073CD
_B5D36                          (abs)        0073CE
_B5D37                          (abs)        0073CF
_B5D3bits                       (abs)        000E79
_B5D4                           (abs)        000E7A
_B5D40                          (abs)        0073D0
_B5D41                          (abs)        0073D1
_B5D42                          (abs)        0073D2
_B5D43                          (abs)        0073D3
_B5D44                          (abs)        0073D4
_B5D45                          (abs)        0073D5
_B5D46                          (abs)        0073D6
_B5D47                          (abs)        0073D7
_B5D4bits                       (abs)        000E7A
_B5D5                           (abs)        000E7B
_B5D50                          (abs)        0073D8
_B5D51                          (abs)        0073D9
_B5D52                          (abs)        0073DA
_B5D53                          (abs)        0073DB
_B5D54                          (abs)        0073DC
_B5D55                          (abs)        0073DD
_B5D56                          (abs)        0073DE
_B5D57                          (abs)        0073DF
_B5D5bits                       (abs)        000E7B
_B5D6                           (abs)        000E7C
_B5D60                          (abs)        0073E0
_B5D61                          (abs)        0073E1
_B5D62                          (abs)        0073E2
_B5D63                          (abs)        0073E3
_B5D64                          (abs)        0073E4
_B5D65                          (abs)        0073E5
_B5D66                          (abs)        0073E6
_B5D67                          (abs)        0073E7
_B5D6bits                       (abs)        000E7C
_B5D7                           (abs)        000E7D
_B5D70                          (abs)        0073E8
_B5D71                          (abs)        0073E9
_B5D72                          (abs)        0073EA
_B5D73                          (abs)        0073EB
_B5D74                          (abs)        0073EC
_B5D75                          (abs)        0073ED
_B5D76                          (abs)        0073EE
_B5D77                          (abs)        0073EF
_B5D7bits                       (abs)        000E7D
_B5DLC                          (abs)        000E75
_B5DLC0                         (abs)        0073A8
_B5DLC1                         (abs)        0073A9
_B5DLC2                         (abs)        0073AA
_B5DLC3                         (abs)        0073AB
_B5DLCbits                      (abs)        000E75
_B5EID0                         (abs)        0073A0
_B5EID1                         (abs)        0073A1
_B5EID10                        (abs)        00739A
_B5EID11                        (abs)        00739B
_B5EID12                        (abs)        00739C
_B5EID13                        (abs)        00739D
_B5EID14                        (abs)        00739E
_B5EID15                        (abs)        00739F
_B5EID16                        (abs)        007390
_B5EID17                        (abs)        007391
_B5EID2                         (abs)        0073A2
_B5EID3                         (abs)        0073A3
_B5EID4                         (abs)        0073A4
_B5EID5                         (abs)        0073A5
_B5EID6                         (abs)        0073A6
_B5EID7                         (abs)        0073A7
_B5EID8                         (abs)        007398
_B5EID9                         (abs)        007399
_B5EIDH                         (abs)        000E73
_B5EIDHbits                     (abs)        000E73
_B5EIDL                         (abs)        000E74
_B5EIDLbits                     (abs)        000E74
_B5EXID                         (abs)        007393
_B5EXIDE                        (abs)        007393
_B5FILHIT0                      (abs)        007380
_B5FILHIT1                      (abs)        007381
_B5FILHIT2                      (abs)        007382
_B5FILHIT3                      (abs)        007383
_B5FILHIT4                      (abs)        007384
_B5IE                           (abs)        006FD7
_B5RB0                          (abs)        0073AC
_B5RB1                          (abs)        0073AD
_B5RTREN                        (abs)        007382
_B5RTRRO                        (abs)        007385
_B5RXFUL                        (abs)        007387
_B5RXM1                         (abs)        007386
_B5RXRTR                        (abs)        0073AE
_B5SID0                         (abs)        007395
_B5SID1                         (abs)        007396
_B5SID10                        (abs)        00738F
_B5SID2                         (abs)        007397
_B5SID3                         (abs)        007388
_B5SID4                         (abs)        007389
_B5SID5                         (abs)        00738A
_B5SID6                         (abs)        00738B
_B5SID7                         (abs)        00738C
_B5SID8                         (abs)        00738D
_B5SID9                         (abs)        00738E
_B5SIDH                         (abs)        000E71
_B5SIDHbits                     (abs)        000E71
_B5SIDL                         (abs)        000E72
_B5SIDLbits                     (abs)        000E72
_B5SRR                          (abs)        007394
_B5TXABT                        (abs)        007386
_B5TXBIF                        (abs)        007387
_B5TXEN                         (abs)        006FC7
_B5TXERR                        (abs)        007384
_B5TXLARB                       (abs)        007385
_B5TXPRI0                       (abs)        007380
_B5TXPRI1                       (abs)        007381
_B5TXREQ                        (abs)        007383
_BAUDCON                        (abs)        000FB8
_BAUDCONbits                    (abs)        000FB8
_BAUDCTL                        (abs)        000FB8
_BAUDCTLbits                    (abs)        000FB8
_BCLIE                          (abs)        007D03
_BCLIF                          (abs)        007D0B
_BCLIP                          (abs)        007D13
_BF                             (abs)        007E38
_BGST                           (abs)        007E95
_BIE0                           (abs)        000DFA
_BIE0bits                       (abs)        000DFA
_BOR                            (abs)        007E80
_BRG16                          (abs)        007DC3
_BRGCON1                        (abs)        000F70
_BRGCON1bits                    (abs)        000F70
_BRGCON2                        (abs)        000F71
_BRGCON2bits                    (abs)        000F71
_BRGCON3                        (abs)        000F72
_BRGCON3bits                    (abs)        000F72
_BRGH                           (abs)        007D62
_BRGH1                          (abs)        007D62
_BRP0                           (abs)        007B80
_BRP1                           (abs)        007B81
_BRP2                           (abs)        007B82
_BRP3                           (abs)        007B83
_BRP4                           (abs)        007B84
_BRP5                           (abs)        007B85
_BSEL0                          (abs)        000DF8
_BSEL0bits                      (abs)        000DF8
_BSR                            (abs)        000FE0
_CANCAP                         (abs)        007B9C
_CANCON                         (abs)        000F6F
_CANCON_RO0                     (abs)        000F5F
_CANCON_RO0bits                 (abs)        000F5F
_CANCON_RO1                     (abs)        000F4F
_CANCON_RO1bits                 (abs)        000F4F
_CANCON_RO2                     (abs)        000F3F
_CANCON_RO2bits                 (abs)        000F3F
_CANCON_RO3                     (abs)        000F2F
_CANCON_RO3bits                 (abs)        000F2F
_CANCON_RO4                     (abs)        000E7F
_CANCON_RO4bits                 (abs)        000E7F
_CANCON_RO5                     (abs)        000E6F
_CANCON_RO5bits                 (abs)        000E6F
_CANCON_RO6                     (abs)        000E5F
_CANCON_RO6bits                 (abs)        000E5F
_CANCON_RO7                     (abs)        000E4F
_CANCON_RO7bits                 (abs)        000E4F
_CANCON_RO8                     (abs)        000E3F
_CANCON_RO8bits                 (abs)        000E3F
_CANCON_RO9                     (abs)        000E2F
_CANCON_RO9bits                 (abs)        000E2F
_CANCONbits                     (abs)        000F6F
_CANRX                          (abs)        007C0B
_CANSTAT                        (abs)        000F6E
_CANSTAT_RO0                    (abs)        000F5E
_CANSTAT_RO0bits                (abs)        000F5E
_CANSTAT_RO1                    (abs)        000F4E
_CANSTAT_RO1bits                (abs)        000F4E
_CANSTAT_RO2                    (abs)        000F3E
_CANSTAT_RO2bits                (abs)        000F3E
_CANSTAT_RO3                    (abs)        000F2E
_CANSTAT_RO3bits                (abs)        000F2E
_CANSTAT_RO4                    (abs)        000E7E
_CANSTAT_RO4bits                (abs)        000E7E
_CANSTAT_RO5                    (abs)        000E6E
_CANSTAT_RO5bits                (abs)        000E6E
_CANSTAT_RO6                    (abs)        000E5E
_CANSTAT_RO6bits                (abs)        000E5E
_CANSTAT_RO7                    (abs)        000E4E
_CANSTAT_RO7bits                (abs)        000E4E
_CANSTAT_RO8                    (abs)        000E3E
_CANSTAT_RO8bits                (abs)        000E3E
_CANSTAT_RO9                    (abs)        000E2E
_CANSTAT_RO9bits                (abs)        000E2E
_CANSTATbits                    (abs)        000F6E
_CANTX                          (abs)        007C0A
_CARRY                          (abs)        007EC0
_CCP1                           (abs)        007C12
_CCP10                          (abs)        007C22
_CCP1CON                        (abs)        000FBD
_CCP1CONbits                    (abs)        000FBD
_CCP1IE                         (abs)        007CEA
_CCP1IF                         (abs)        007CF2
_CCP1IP                         (abs)        007CFA
_CCP1M0                         (abs)        007DE8
_CCP1M1                         (abs)        007DE9
_CCP1M2                         (abs)        007DEA
_CCP1M3                         (abs)        007DEB
_CCP2                           (abs)        007C11
_CCP2E                          (abs)        007C27
_CCP2_PA2                       (abs)        007C0B
_CCP6E                          (abs)        007C26
_CCP7E                          (abs)        007C25
_CCP8E                          (abs)        007C24
_CCP9E                          (abs)        007C23
_CCPR1                          (abs)        000FBE
_CCPR1H                         (abs)        000FBF
_CCPR1L                         (abs)        000FBE
_CFGS                           (abs)        007D36
_CHS0                           (abs)        007E12
_CHS1                           (abs)        007E13
_CHS2                           (abs)        007E14
_CHS3                           (abs)        007E15
_CHSN3                          (abs)        007E0B
_CIOCON                         (abs)        000F73
_CIOCONbits                     (abs)        000F73
_CK                             (abs)        007C16
_CKE                            (abs)        007E3E
_CKP                            (abs)        007E34
_CLKI                           (abs)        007C07
_CLKO                           (abs)        007C06
_COMSTAT                        (abs)        000F74
_COMSTATbits                    (abs)        000F74
_CREN                           (abs)        007D5C
_CS                             (abs)        007C22
_CSRC                           (abs)        007D67
_CSRC1                          (abs)        007D67
_CVREF                          (abs)        007C00
_CapStatus                      bssCOMRAM    000032
_DA                             (abs)        007E3D
_DATA_ADDRESS                   (abs)        007E3D
_DC                             (abs)        007EC1
_DC1B0                          (abs)        007DEC
_DC1B1                          (abs)        007DED
_DDRA                           (abs)        000F92
_DDRAbits                       (abs)        000F92
_DDRB                           (abs)        000F93
_DDRBbits                       (abs)        000F93
_DDRC                           (abs)        000F94
_DDRCbits                       (abs)        000F94
_DFLC0                          (abs)        006EC0
_DFLC1                          (abs)        006EC1
_DFLC2                          (abs)        006EC2
_DFLC3                          (abs)        006EC3
_DFLC4                          (abs)        006EC4
_DONE                           (abs)        007E11
_DRXB0IE                        (abs)        006FD0
_DRXB1IE                        (abs)        006FD1
_DT                             (abs)        007C17
_D_A                            (abs)        007E3D
_D_NOT_A                        (abs)        007E3D
_D_nA                           (abs)        007E3D
_Delay1KTCYx                    text25       001ED8
_ECANCON                        (abs)        000F77
_ECANCONbits                    (abs)        000F77
_ECCP1AS                        (abs)        000FB6
_ECCP1ASbits                    (abs)        000FB6
_ECCP1DEL                       (abs)        000FB7
_ECCP1DELbits                   (abs)        000FB7
_ECCPAS0                        (abs)        007DB4
_ECCPAS1                        (abs)        007DB5
_ECCPAS2                        (abs)        007DB6
_ECCPASE                        (abs)        007DB7
_EEADR                          (abs)        000FA9
_EEADRH                         (abs)        000FAA
_EECON1                         (abs)        000FA6
_EECON1bits                     (abs)        000FA6
_EECON2                         (abs)        000FA7
_EEDATA                         (abs)        000FA8
_EEFS                           (abs)        007D36
_EEIE                           (abs)        007D04
_EEIF                           (abs)        007D0C
_EEIP                           (abs)        007D14
_EEPGD                          (abs)        007D37
_EICODE0                        (abs)        007B70
_EICODE1                        (abs)        007B71
_EICODE2                        (abs)        007B72
_EICODE3                        (abs)        007B73
_EICODE4                        (abs)        007B74
_ENDRHI                         (abs)        007B9D
_ERRIE                          (abs)        007D1D
_ERRIF                          (abs)        007D25
_ERRIP                          (abs)        007D2D
_EWARN                          (abs)        007BA0
_EWIN0                          (abs)        007BB8
_EWIN1                          (abs)        007BB9
_EWIN2                          (abs)        007BBA
_EWIN3                          (abs)        007BBB
_EWIN4                          (abs)        007BBC
_F0BP_0                         (abs)        006F00
_F0BP_01                        (abs)        006F00
_F0BP_1                         (abs)        006F01
_F0BP_2                         (abs)        006F02
_F0BP_3                         (abs)        006F03
_F10BP_0                        (abs)        006F28
_F10BP_01                       (abs)        006F28
_F10BP_1                        (abs)        006F29
_F10BP_2                        (abs)        006F2A
_F10BP_3                        (abs)        006F2B
_F11BP_0                        (abs)        006F2C
_F11BP_1                        (abs)        006F2D
_F11BP_2                        (abs)        006F2E
_F11BP_3                        (abs)        006F2F
_F12BP_0                        (abs)        006F30
_F12BP_01                       (abs)        006F30
_F12BP_1                        (abs)        006F31
_F12BP_2                        (abs)        006F32
_F12BP_3                        (abs)        006F33
_F13BP_0                        (abs)        006F34
_F13BP_1                        (abs)        006F35
_F13BP_2                        (abs)        006F36
_F13BP_3                        (abs)        006F37
_F14BP_0                        (abs)        006F38
_F14BP_01                       (abs)        006F38
_F14BP_1                        (abs)        006F39
_F14BP_2                        (abs)        006F3A
_F14BP_3                        (abs)        006F3B
_F15BP_0                        (abs)        006F3C
_F15BP_1                        (abs)        006F3D
_F15BP_2                        (abs)        006F3E
_F15BP_3                        (abs)        006F3F
_F1BP_0                         (abs)        006F04
_F1BP_1                         (abs)        006F05
_F1BP_2                         (abs)        006F06
_F1BP_3                         (abs)        006F07
_F2BP_0                         (abs)        006F08
_F2BP_01                        (abs)        006F08
_F2BP_1                         (abs)        006F09
_F2BP_2                         (abs)        006F0A
_F2BP_3                         (abs)        006F0B
_F3BP_0                         (abs)        006F0C
_F3BP_1                         (abs)        006F0D
_F3BP_2                         (abs)        006F0E
_F3BP_3                         (abs)        006F0F
_F4BP_0                         (abs)        006F10
_F4BP_01                        (abs)        006F10
_F4BP_1                         (abs)        006F11
_F4BP_2                         (abs)        006F12
_F4BP_3                         (abs)        006F13
_F5BP_0                         (abs)        006F14
_F5BP_1                         (abs)        006F15
_F5BP_2                         (abs)        006F16
_F5BP_3                         (abs)        006F17
_F6BP_0                         (abs)        006F18
_F6BP_01                        (abs)        006F18
_F6BP_1                         (abs)        006F19
_F6BP_2                         (abs)        006F1A
_F6BP_3                         (abs)        006F1B
_F7BP_0                         (abs)        006F1C
_F7BP_1                         (abs)        006F1D
_F7BP_2                         (abs)        006F1E
_F7BP_3                         (abs)        006F1F
_F8BP_0                         (abs)        006F20
_F8BP_01                        (abs)        006F20
_F8BP_1                         (abs)        006F21
_F8BP_2                         (abs)        006F22
_F8BP_3                         (abs)        006F23
_F9BP_0                         (abs)        006F24
_F9BP_1                         (abs)        006F25
_F9BP_2                         (abs)        006F26
_F9BP_3                         (abs)        006F27
_FERR                           (abs)        007D5A
_FIFOEMPTY                      (abs)        007BA7
_FIFOMWIE                       (abs)        007D18
_FIFOWM                         (abs)        007BBD
_FIFOWMIE                       (abs)        007D18
_FIFOWMIF                       (abs)        007D20
_FIFOWMIP                       (abs)        007D28
_FIL0_0                         (abs)        006F80
_FIL0_1                         (abs)        006F81
_FIL10_0                        (abs)        006F94
_FIL10_1                        (abs)        006F95
_FIL11_0                        (abs)        006F96
_FIL11_1                        (abs)        006F97
_FIL12_0                        (abs)        006F98
_FIL12_1                        (abs)        006F99
_FIL13_0                        (abs)        006F9A
_FIL13_1                        (abs)        006F9B
_FIL14_0                        (abs)        006F9C
_FIL14_1                        (abs)        006F9D
_FIL15_0                        (abs)        006F9E
_FIL15_1                        (abs)        006F9F
_FIL1_0                         (abs)        006F82
_FIL1_1                         (abs)        006F83
_FIL2_0                         (abs)        006F84
_FIL2_1                         (abs)        006F85
_FIL3_0                         (abs)        006F86
_FIL3_1                         (abs)        006F87
_FIL4_0                         (abs)        006F88
_FIL4_1                         (abs)        006F89
_FIL5_0                         (abs)        006F8A
_FIL5_1                         (abs)        006F8B
_FIL6_0                         (abs)        006F8C
_FIL6_1                         (abs)        006F8D
_FIL7_0                         (abs)        006F8E
_FIL7_1                         (abs)        006F8F
_FIL8_0                         (abs)        006F90
_FIL8_1                         (abs)        006F91
_FIL9_0                         (abs)        006F92
_FIL9_1                         (abs)        006F93
_FLC0                           (abs)        006EC0
_FLC1                           (abs)        006EC1
_FLC2                           (abs)        006EC2
_FLC3                           (abs)        006EC3
_FLC4                           (abs)        006EC4
_FLT0                           (abs)        007C08
_FP0                            (abs)        007B78
_FP1                            (abs)        007B79
_FP2                            (abs)        007B7A
_FP3                            (abs)        007B7B
_FREE                           (abs)        007D34
_FSR0                           (abs)        000FE9
_FSR0H                          (abs)        000FEA
_FSR0L                          (abs)        000FE9
_FSR1                           (abs)        000FE1
_FSR1H                          (abs)        000FE2
_FSR1L                          (abs)        000FE1
_FSR2                           (abs)        000FD9
_FSR2H                          (abs)        000FDA
_FSR2L                          (abs)        000FD9
_FromMainHigh_MQ                bssBANK1     000100
_FromMainHigh_recvmsg           text41       001DB4
_FromMainHigh_sendmsg           text21       001DE4
_FromMainLow_MQ                 bssBANK1     000136
_GCEN                           (abs)        007E2F
_GIE                            (abs)        007F97
_GIEH                           (abs)        007F97
_GIEL                           (abs)        007F96
_GIE_GIEH                       (abs)        007F97
_GO                             (abs)        007E11
_GODONE                         (abs)        007E11
_GO_DONE                        (abs)        007E11
_GO_NOT_DONE                    (abs)        007E11
_GO_nDONE                       (abs)        007E11
_HLVDCON                        (abs)        000FD2
_HLVDCONbits                    (abs)        000FD2
_HLVDEN                         (abs)        007E94
_HLVDIE                         (abs)        007D02
_HLVDIF                         (abs)        007D0A
_HLVDIN                         (abs)        007C05
_HLVDIP                         (abs)        007D12
_HLVDL0                         (abs)        007E90
_HLVDL1                         (abs)        007E91
_HLVDL2                         (abs)        007E92
_HLVDL3                         (abs)        007E93
_I2C_DAT                        (abs)        007E3D
_I2C_READ                       (abs)        007E3A
_I2C_START                      (abs)        007E3B
_I2C_STOP                       (abs)        007E3C
_IDLEN                          (abs)        007E9F
_INDF0                          (abs)        000FEF
_INDF1                          (abs)        000FE7
_INDF2                          (abs)        000FDF
_INT0                           (abs)        007C08
_INT0E                          (abs)        007F94
_INT0F                          (abs)        007F91
_INT0IE                         (abs)        007F94
_INT0IF                         (abs)        007F91
_INT1                           (abs)        007C09
_INT1E                          (abs)        007F83
_INT1F                          (abs)        007F80
_INT1IE                         (abs)        007F83
_INT1IF                         (abs)        007F80
_INT1IP                         (abs)        007F86
_INT1P                          (abs)        007F86
_INT2                           (abs)        007C0A
_INT2E                          (abs)        007F84
_INT2F                          (abs)        007F81
_INT2IE                         (abs)        007F84
_INT2IF                         (abs)        007F81
_INT2IP                         (abs)        007F87
_INT2P                          (abs)        007F87
_INTCON                         (abs)        000FF2
_INTCON2                        (abs)        000FF1
_INTCON2bits                    (abs)        000FF1
_INTCON3                        (abs)        000FF0
_INTCON3bits                    (abs)        000FF0
_INTCONbits                     (abs)        000FF2
_INTEDG0                        (abs)        007F8E
_INTEDG1                        (abs)        007F8D
_INTEDG2                        (abs)        007F8C
_INTSCR                         (abs)        007CDF
_INTSRC                         (abs)        007CDF
_IOFS                           (abs)        007E9A
_IPEN                           (abs)        007E87
_IPR1                           (abs)        000F9F
_IPR1bits                       (abs)        000F9F
_IPR2                           (abs)        000FA2
_IPR2bits                       (abs)        000FA2
_IPR3                           (abs)        000FA5
_IPR3bits                       (abs)        000FA5
_IRCF0                          (abs)        007E9C
_IRCF1                          (abs)        007E9D
_IRCF2                          (abs)        007E9E
_IRVST                          (abs)        007E95
_IRXIE                          (abs)        007D1F
_IRXIF                          (abs)        007D27
_IRXIP                          (abs)        007D2F
_IVRST                          (abs)        007E95
_InterruptHandlerHigh           intcode      000008
_InterruptHandlerLow            intcodelo    000018
_JTOFF                          (abs)        007B01
_JTOFF_FILHIT1                  (abs)        007B01
_KBI0                           (abs)        007C0C
_KBI1                           (abs)        007C0D
_KBI2                           (abs)        007C0E
_KBI3                           (abs)        007C0F
_LA0                            (abs)        007C48
_LA1                            (abs)        007C49
_LA2                            (abs)        007C4A
_LA3                            (abs)        007C4B
_LA4                            (abs)        007C4C
_LA5                            (abs)        007C4D
_LA6                            (abs)        007C4E
_LA7                            (abs)        007C4F
_LATA                           (abs)        000F89
_LATA0                          (abs)        007C48
_LATA1                          (abs)        007C49
_LATA2                          (abs)        007C4A
_LATA3                          (abs)        007C4B
_LATA4                          (abs)        007C4C
_LATA5                          (abs)        007C4D
_LATA6                          (abs)        007C4E
_LATA7                          (abs)        007C4F
_LATAbits                       (abs)        000F89
_LATB                           (abs)        000F8A
_LATB0                          (abs)        007C50
_LATB1                          (abs)        007C51
_LATB2                          (abs)        007C52
_LATB3                          (abs)        007C53
_LATB4                          (abs)        007C54
_LATB5                          (abs)        007C55
_LATB6                          (abs)        007C56
_LATB7                          (abs)        007C57
_LATBbits                       (abs)        000F8A
_LATC                           (abs)        000F8B
_LATC0                          (abs)        007C58
_LATC1                          (abs)        007C59
_LATC2                          (abs)        007C5A
_LATC3                          (abs)        007C5B
_LATC4                          (abs)        007C5C
_LATC5                          (abs)        007C5D
_LATC6                          (abs)        007C5E
_LATC7                          (abs)        007C5F
_LATCbits                       (abs)        000F8B
_LB0                            (abs)        007C50
_LB1                            (abs)        007C51
_LB2                            (abs)        007C52
_LB3                            (abs)        007C53
_LB4                            (abs)        007C54
_LB5                            (abs)        007C55
_LB6                            (abs)        007C56
_LB7                            (abs)        007C57
_LC0                            (abs)        007C58
_LC1                            (abs)        007C59
_LC2                            (abs)        007C5A
_LC3                            (abs)        007C5B
_LC4                            (abs)        007C5C
_LC5                            (abs)        007C5D
_LC6                            (abs)        007C5E
_LC7                            (abs)        007C5F
_LVDCON                         (abs)        000FD2
_LVDCONbits                     (abs)        000FD2
_LVDEN                          (abs)        007E94
_LVDIE                          (abs)        007D02
_LVDIF                          (abs)        007D0A
_LVDIN                          (abs)        007C05
_LVDIP                          (abs)        007D12
_LVDL0                          (abs)        007E90
_LVDL1                          (abs)        007E91
_LVDL2                          (abs)        007E92
_LVDL3                          (abs)        007E93
_LVV0                           (abs)        007E90
_LVV1                           (abs)        007E91
_LVV2                           (abs)        007E92
_LVV3                           (abs)        007E93
_MDSEL0                         (abs)        007BBE
_MDSEL1                         (abs)        007BBF
_MEMCON                         (abs)        000FCB
_MQ_Main_Willing_to_block       bssBANK0     000060
_MSEL0                          (abs)        000DF0
_MSEL0bits                      (abs)        000DF0
_MSEL1                          (abs)        000DF1
_MSEL1bits                      (abs)        000DF1
_MSEL2                          (abs)        000DF2
_MSEL2bits                      (abs)        000DF2
_MSEL3                          (abs)        000DF3
_MSEL3bits                      (abs)        000DF3
_NEGATIVE                       (abs)        007EC4
_NOT_A                          (abs)        007E3D
_NOT_ADDRESS                    (abs)        007E3D
_NOT_BOR                        (abs)        007E80
_NOT_DONE                       (abs)        007E11
_NOT_FIFOEMPTY                  (abs)        007BA7
_NOT_PD                         (abs)        007E82
_NOT_POR                        (abs)        007E81
_NOT_RBPU                       (abs)        007F8F
_NOT_RI                         (abs)        007E84
_NOT_SS                         (abs)        007C05
_NOT_T1SYNC                     (abs)        007E6A
_NOT_T3SYNC                     (abs)        007D8A
_NOT_TO                         (abs)        007E83
_NOT_W                          (abs)        007E3A
_NOT_WRITE                      (abs)        007E3A
_OERR                           (abs)        007D59
_OSC1                           (abs)        007C07
_OSC2                           (abs)        007C06
_OSCCON                         (abs)        000FD3
_OSCCONbits                     (abs)        000FD3
_OSCFIE                         (abs)        007D07
_OSCFIF                         (abs)        007D0F
_OSCFIP                         (abs)        007D17
_OSCTUNE                        (abs)        000F9B
_OSCTUNEbits                    (abs)        000F9B
_OSTS                           (abs)        007E9B
_OV                             (abs)        007EC3
_OVERFLOW                       (abs)        007EC3
_OpenTimer1                     text6        001C6E
_OpenUSART                      text8        0014BC
_PA1                            (abs)        007C12
_PA2                            (abs)        007C11
_PA2E                           (abs)        007C27
_PB1E                           (abs)        007C26
_PB2                            (abs)        007C22
_PB3E                           (abs)        007C24
_PC                             (abs)        000FF9
_PC1E                           (abs)        007C25
_PC2                            (abs)        007C21
_PC3E                           (abs)        007C23
_PCFG0                          (abs)        007E08
_PCFG1                          (abs)        007E09
_PCFG2                          (abs)        007E0A
_PCFG3                          (abs)        007E0B
_PCL                            (abs)        000FF9
_PCLAT                          (abs)        000FF9
_PCLATH                         (abs)        000FFA
_PCLATU                         (abs)        000FFB
_PD                             (abs)        007E82
_PD2                            (abs)        007C20
_PEIE                           (abs)        007F96
_PEIE_GIEL                      (abs)        007F96
_PEN                            (abs)        007E2A
_PGC                            (abs)        007C0E
_PGD                            (abs)        007C0F
_PGM                            (abs)        007C0D
_PIE1                           (abs)        000F9D
_PIE1bits                       (abs)        000F9D
_PIE2                           (abs)        000FA0
_PIE2bits                       (abs)        000FA0
_PIE3                           (abs)        000FA3
_PIE3bits                       (abs)        000FA3
_PIR1                           (abs)        000F9E
_PIR1bits                       (abs)        000F9E
_PIR2                           (abs)        000FA1
_PIR2bits                       (abs)        000FA1
_PIR3                           (abs)        000FA4
_PIR3bits                       (abs)        000FA4
_PLLEN                          (abs)        007CDE
_PLUSW0                         (abs)        000FEB
_PLUSW1                         (abs)        000FE3
_PLUSW2                         (abs)        000FDB
_POR                            (abs)        007E81
_PORTA                          (abs)        000F80
_PORTAbits                      (abs)        000F80
_PORTB                          (abs)        000F81
_PORTBbits                      (abs)        000F81
_PORTC                          (abs)        000F82
_PORTCbits                      (abs)        000F82
_PORTE                          (abs)        000F84
_PORTEbits                      (abs)        000F84
_POSTDEC0                       (abs)        000FED
_POSTDEC1                       (abs)        000FE5
_POSTDEC2                       (abs)        000FDD
_POSTINC0                       (abs)        000FEE
_POSTINC1                       (abs)        000FE6
_POSTINC2                       (abs)        000FDE
_PR2                            (abs)        000FCB
_PREINC0                        (abs)        000FEC
_PREINC1                        (abs)        000FE4
_PREINC2                        (abs)        000FDC
_PROD                           (abs)        000FF3
_PRODH                          (abs)        000FF4
_PRODL                          (abs)        000FF3
_PRSEG0                         (abs)        007B88
_PRSEG1                         (abs)        007B89
_PRSEG2                         (abs)        007B8A
_PRSEN                          (abs)        007DBF
_PSA                            (abs)        007EAB
_PSSAC0                         (abs)        007DB2
_PSSAC1                         (abs)        007DB3
_RA0                            (abs)        007C00
_RA1                            (abs)        007C01
_RA2                            (abs)        007C02
_RA3                            (abs)        007C03
_RA4                            (abs)        007C04
_RA5                            (abs)        007C05
_RA6                            (abs)        007C06
_RA7                            (abs)        007C07
_RB0                            (abs)        007C08
_RB1                            (abs)        007C09
_RB2                            (abs)        007C0A
_RB3                            (abs)        007C0B
_RB4                            (abs)        007C0C
_RB5                            (abs)        007C0D
_RB6                            (abs)        007C0E
_RB7                            (abs)        007C0F
_RBIE                           (abs)        007F93
_RBIF                           (abs)        007F90
_RBIP                           (abs)        007F88
_RBPU                           (abs)        007F8F
_RC0                            (abs)        007C10
_RC1                            (abs)        007C11
_RC1IE                          (abs)        007CED
_RC1IF                          (abs)        007CF5
_RC1IP                          (abs)        007CFD
_RC2                            (abs)        007C12
_RC3                            (abs)        007C13
_RC4                            (abs)        007C14
_RC5                            (abs)        007C15
_RC6                            (abs)        007C16
_RC7                            (abs)        007C17
_RCEN                           (abs)        007E2B
_RCIDL                          (abs)        007DC6
_RCIE                           (abs)        007CED
_RCIF                           (abs)        007CF5
_RCIP                           (abs)        007CFD
_RCON                           (abs)        000FD0
_RCONbits                       (abs)        000FD0
_RCREG                          (abs)        000FAE
_RCREG1                         (abs)        000FAE
_RCSTA                          (abs)        000FAB
_RCSTA1                         (abs)        000FAB
_RCSTA1bits                     (abs)        000FAB
_RCSTAbits                      (abs)        000FAB
_RD                             (abs)        007D30
_RD163                          (abs)        007D8F
_RDE                            (abs)        007C20
_RE0                            (abs)        007C20
_RE1                            (abs)        007C21
_RE2                            (abs)        007C22
_RE3                            (abs)        007C23
_RE4                            (abs)        007C24
_RE5                            (abs)        007C25
_RE6                            (abs)        007C26
_RE7                            (abs)        007C27
_READ_WRITE                     (abs)        007E3A
_REC0                           (abs)        007BA8
_REC1                           (abs)        007BA9
_REC2                           (abs)        007BAA
_REC3                           (abs)        007BAB
_REC4                           (abs)        007BAC
_REC5                           (abs)        007BAD
_REC6                           (abs)        007BAE
_REC7                           (abs)        007BAF
_RI                             (abs)        007E84
_RJPU                           (abs)        007C07
_RSEN                           (abs)        007E29
_RW                             (abs)        007E3A
_RX                             (abs)        007C17
_RX9                            (abs)        007D5E
_RX9D                           (abs)        007D58
_RXB0CON                        (abs)        000F60
_RXB0CONbits                    (abs)        000F60
_RXB0D0                         (abs)        000F66
_RXB0D00                        (abs)        007B30
_RXB0D01                        (abs)        007B31
_RXB0D02                        (abs)        007B32
_RXB0D03                        (abs)        007B33
_RXB0D04                        (abs)        007B34
_RXB0D05                        (abs)        007B35
_RXB0D06                        (abs)        007B36
_RXB0D07                        (abs)        007B37
_RXB0D0bits                     (abs)        000F66
_RXB0D1                         (abs)        000F67
_RXB0D10                        (abs)        007B38
_RXB0D11                        (abs)        007B39
_RXB0D12                        (abs)        007B3A
_RXB0D13                        (abs)        007B3B
_RXB0D14                        (abs)        007B3C
_RXB0D15                        (abs)        007B3D
_RXB0D16                        (abs)        007B3E
_RXB0D17                        (abs)        007B3F
_RXB0D1bits                     (abs)        000F67
_RXB0D2                         (abs)        000F68
_RXB0D20                        (abs)        007B40
_RXB0D21                        (abs)        007B41
_RXB0D22                        (abs)        007B42
_RXB0D23                        (abs)        007B43
_RXB0D24                        (abs)        007B44
_RXB0D25                        (abs)        007B45
_RXB0D26                        (abs)        007B46
_RXB0D27                        (abs)        007B47
_RXB0D2bits                     (abs)        000F68
_RXB0D3                         (abs)        000F69
_RXB0D30                        (abs)        007B48
_RXB0D31                        (abs)        007B49
_RXB0D32                        (abs)        007B4A
_RXB0D33                        (abs)        007B4B
_RXB0D34                        (abs)        007B4C
_RXB0D35                        (abs)        007B4D
_RXB0D36                        (abs)        007B4E
_RXB0D37                        (abs)        007B4F
_RXB0D3bits                     (abs)        000F69
_RXB0D4                         (abs)        000F6A
_RXB0D40                        (abs)        007B50
_RXB0D41                        (abs)        007B51
_RXB0D42                        (abs)        007B52
_RXB0D43                        (abs)        007B53
_RXB0D44                        (abs)        007B54
_RXB0D45                        (abs)        007B55
_RXB0D46                        (abs)        007B56
_RXB0D47                        (abs)        007B57
_RXB0D4bits                     (abs)        000F6A
_RXB0D5                         (abs)        000F6B
_RXB0D50                        (abs)        007B58
_RXB0D51                        (abs)        007B59
_RXB0D52                        (abs)        007B5A
_RXB0D53                        (abs)        007B5B
_RXB0D54                        (abs)        007B5C
_RXB0D55                        (abs)        007B5D
_RXB0D56                        (abs)        007B5E
_RXB0D57                        (abs)        007B5F
_RXB0D5bits                     (abs)        000F6B
_RXB0D6                         (abs)        000F6C
_RXB0D60                        (abs)        007B60
_RXB0D61                        (abs)        007B61
_RXB0D62                        (abs)        007B62
_RXB0D63                        (abs)        007B63
_RXB0D64                        (abs)        007B64
_RXB0D65                        (abs)        007B65
_RXB0D66                        (abs)        007B66
_RXB0D67                        (abs)        007B67
_RXB0D6bits                     (abs)        000F6C
_RXB0D7                         (abs)        000F6D
_RXB0D70                        (abs)        007B68
_RXB0D71                        (abs)        007B69
_RXB0D72                        (abs)        007B6A
_RXB0D73                        (abs)        007B6B
_RXB0D74                        (abs)        007B6C
_RXB0D75                        (abs)        007B6D
_RXB0D76                        (abs)        007B6E
_RXB0D77                        (abs)        007B6F
_RXB0D7bits                     (abs)        000F6D
_RXB0DBEN                       (abs)        007B02
_RXB0DBEN_FILHIT2               (abs)        007B02
_RXB0DLC                        (abs)        000F65
_RXB0DLC0                       (abs)        007B28
_RXB0DLC1                       (abs)        007B29
_RXB0DLC2                       (abs)        007B2A
_RXB0DLC3                       (abs)        007B2B
_RXB0DLCbits                    (abs)        000F65
_RXB0EID0                       (abs)        007B20
_RXB0EID1                       (abs)        007B21
_RXB0EID10                      (abs)        007B1A
_RXB0EID11                      (abs)        007B1B
_RXB0EID12                      (abs)        007B1C
_RXB0EID13                      (abs)        007B1D
_RXB0EID14                      (abs)        007B1E
_RXB0EID15                      (abs)        007B1F
_RXB0EID16                      (abs)        007B10
_RXB0EID17                      (abs)        007B11
_RXB0EID2                       (abs)        007B22
_RXB0EID3                       (abs)        007B23
_RXB0EID4                       (abs)        007B24
_RXB0EID5                       (abs)        007B25
_RXB0EID6                       (abs)        007B26
_RXB0EID7                       (abs)        007B27
_RXB0EID8                       (abs)        007B18
_RXB0EID9                       (abs)        007B19
_RXB0EIDH                       (abs)        000F63
_RXB0EIDHbits                   (abs)        000F63
_RXB0EIDL                       (abs)        000F64
_RXB0EIDLbits                   (abs)        000F64
_RXB0EXID                       (abs)        007B13
_RXB0FILHIT0                    (abs)        007B00
_RXB0FILHIT1                    (abs)        007B01
_RXB0FILHIT2                    (abs)        007B02
_RXB0FILHIT3                    (abs)        007B03
_RXB0FILHIT4                    (abs)        007B04
_RXB0FUL                        (abs)        007B07
_RXB0IE                         (abs)        007D18
_RXB0IF                         (abs)        007D20
_RXB0IP                         (abs)        007D28
_RXB0M0                         (abs)        007B05
_RXB0M1                         (abs)        007B06
_RXB0OVFL                       (abs)        007BA7
_RXB0OVFL_NOT_FIFOEMPTY         (abs)        007BA7
_RXB0OVFL_nFIFOEMPTY            (abs)        007BA7
_RXB0RB0                        (abs)        007B2C
_RXB0RB1                        (abs)        007B2D
_RXB0RTR                        (abs)        007B2E
_RXB0RTRR0                      (abs)        007B03
_RXB0RTRRO                      (abs)        007B05
_RXB0SID0                       (abs)        007B15
_RXB0SID1                       (abs)        007B16
_RXB0SID10                      (abs)        007B0F
_RXB0SID2                       (abs)        007B17
_RXB0SID3                       (abs)        007B08
_RXB0SID4                       (abs)        007B09
_RXB0SID5                       (abs)        007B0A
_RXB0SID6                       (abs)        007B0B
_RXB0SID7                       (abs)        007B0C
_RXB0SID8                       (abs)        007B0D
_RXB0SID9                       (abs)        007B0E
_RXB0SIDH                       (abs)        000F61
_RXB0SIDHbits                   (abs)        000F61
_RXB0SIDL                       (abs)        000F62
_RXB0SIDLbits                   (abs)        000F62
_RXB0SRR                        (abs)        007B14
_RXB1CON                        (abs)        000F50
_RXB1CONbits                    (abs)        000F50
_RXB1D0                         (abs)        000F56
_RXB1D00                        (abs)        007AB0
_RXB1D01                        (abs)        007AB1
_RXB1D02                        (abs)        007AB2
_RXB1D03                        (abs)        007AB3
_RXB1D04                        (abs)        007AB4
_RXB1D05                        (abs)        007AB5
_RXB1D06                        (abs)        007AB6
_RXB1D07                        (abs)        007AB7
_RXB1D0bits                     (abs)        000F56
_RXB1D1                         (abs)        000F57
_RXB1D10                        (abs)        007AB8
_RXB1D11                        (abs)        007AB9
_RXB1D12                        (abs)        007ABA
_RXB1D13                        (abs)        007ABB
_RXB1D14                        (abs)        007ABC
_RXB1D15                        (abs)        007ABD
_RXB1D16                        (abs)        007ABE
_RXB1D17                        (abs)        007ABF
_RXB1D1bits                     (abs)        000F57
_RXB1D2                         (abs)        000F58
_RXB1D20                        (abs)        007AC0
_RXB1D21                        (abs)        007AC1
_RXB1D22                        (abs)        007AC2
_RXB1D23                        (abs)        007AC3
_RXB1D24                        (abs)        007AC4
_RXB1D25                        (abs)        007AC5
_RXB1D26                        (abs)        007AC6
_RXB1D27                        (abs)        007AC7
_RXB1D2bits                     (abs)        000F58
_RXB1D3                         (abs)        000F59
_RXB1D30                        (abs)        007AC8
_RXB1D31                        (abs)        007AC9
_RXB1D32                        (abs)        007ACA
_RXB1D33                        (abs)        007ACB
_RXB1D34                        (abs)        007ACC
_RXB1D35                        (abs)        007ACD
_RXB1D36                        (abs)        007ACE
_RXB1D37                        (abs)        007ACF
_RXB1D3bits                     (abs)        000F59
_RXB1D4                         (abs)        000F5A
_RXB1D40                        (abs)        007AD0
_RXB1D41                        (abs)        007AD1
_RXB1D42                        (abs)        007AD2
_RXB1D43                        (abs)        007AD3
_RXB1D44                        (abs)        007AD4
_RXB1D45                        (abs)        007AD5
_RXB1D46                        (abs)        007AD6
_RXB1D47                        (abs)        007AD7
_RXB1D4bits                     (abs)        000F5A
_RXB1D5                         (abs)        000F5B
_RXB1D50                        (abs)        007AD8
_RXB1D51                        (abs)        007AD9
_RXB1D52                        (abs)        007ADA
_RXB1D53                        (abs)        007ADB
_RXB1D54                        (abs)        007ADC
_RXB1D55                        (abs)        007ADD
_RXB1D56                        (abs)        007ADE
_RXB1D57                        (abs)        007ADF
_RXB1D5bits                     (abs)        000F5B
_RXB1D6                         (abs)        000F5C
_RXB1D60                        (abs)        007AE0
_RXB1D61                        (abs)        007AE1
_RXB1D62                        (abs)        007AE2
_RXB1D63                        (abs)        007AE3
_RXB1D64                        (abs)        007AE4
_RXB1D65                        (abs)        007AE5
_RXB1D66                        (abs)        007AE6
_RXB1D67                        (abs)        007AE7
_RXB1D6bits                     (abs)        000F5C
_RXB1D7                         (abs)        000F5D
_RXB1D70                        (abs)        007AE8
_RXB1D71                        (abs)        007AE9
_RXB1D72                        (abs)        007AEA
_RXB1D73                        (abs)        007AEB
_RXB1D74                        (abs)        007AEC
_RXB1D75                        (abs)        007AED
_RXB1D76                        (abs)        007AEE
_RXB1D77                        (abs)        007AEF
_RXB1D7bits                     (abs)        000F5D
_RXB1DLC                        (abs)        000F55
_RXB1DLC0                       (abs)        007AA8
_RXB1DLC1                       (abs)        007AA9
_RXB1DLC2                       (abs)        007AAA
_RXB1DLC3                       (abs)        007AAB
_RXB1DLCbits                    (abs)        000F55
_RXB1EID0                       (abs)        007AA0
_RXB1EID1                       (abs)        007AA1
_RXB1EID10                      (abs)        007A9A
_RXB1EID11                      (abs)        007A9B
_RXB1EID12                      (abs)        007A9C
_RXB1EID13                      (abs)        007A9D
_RXB1EID14                      (abs)        007A9E
_RXB1EID15                      (abs)        007A9F
_RXB1EID16                      (abs)        007A90
_RXB1EID17                      (abs)        007A91
_RXB1EID2                       (abs)        007AA2
_RXB1EID3                       (abs)        007AA3
_RXB1EID4                       (abs)        007AA4
_RXB1EID5                       (abs)        007AA5
_RXB1EID6                       (abs)        007AA6
_RXB1EID7                       (abs)        007AA7
_RXB1EID8                       (abs)        007A98
_RXB1EID9                       (abs)        007A99
_RXB1EIDH                       (abs)        000F53
_RXB1EIDHbits                   (abs)        000F53
_RXB1EIDL                       (abs)        000F54
_RXB1EIDLbits                   (abs)        000F54
_RXB1EXID                       (abs)        007A93
_RXB1FILHIT0                    (abs)        007A80
_RXB1FILHIT1                    (abs)        007A81
_RXB1FILHIT2                    (abs)        007A82
_RXB1FILHIT3                    (abs)        007A83
_RXB1FILHIT4                    (abs)        007A84
_RXB1FUL                        (abs)        007A87
_RXB1IE                         (abs)        007D19
_RXB1IF                         (abs)        007D21
_RXB1IP                         (abs)        007D29
_RXB1M0                         (abs)        007A85
_RXB1M1                         (abs)        007A86
_RXB1OVFL                       (abs)        007BA6
_RXB1RB0                        (abs)        007AAC
_RXB1RB1                        (abs)        007AAD
_RXB1RTR                        (abs)        007AAE
_RXB1RTRR0                      (abs)        007A83
_RXB1RTRRO                      (abs)        007A85
_RXB1SID0                       (abs)        007A95
_RXB1SID1                       (abs)        007A96
_RXB1SID10                      (abs)        007A8F
_RXB1SID2                       (abs)        007A97
_RXB1SID3                       (abs)        007A88
_RXB1SID4                       (abs)        007A89
_RXB1SID5                       (abs)        007A8A
_RXB1SID6                       (abs)        007A8B
_RXB1SID7                       (abs)        007A8C
_RXB1SID8                       (abs)        007A8D
_RXB1SID9                       (abs)        007A8E
_RXB1SIDH                       (abs)        000F51
_RXB1SIDHbits                   (abs)        000F51
_RXB1SIDL                       (abs)        000F52
_RXB1SIDLbits                   (abs)        000F52
_RXB1SRR                        (abs)        007A94
_RXBNIE                         (abs)        007D19
_RXBNIF                         (abs)        007D21
_RXBNIP                         (abs)        007D29
_RXBNOVFL                       (abs)        007BA6
_RXBODBEN                       (abs)        007B02
_RXBP                           (abs)        007BA3
_RXBnIE                         (abs)        007D19
_RXBnIF                         (abs)        007D21
_RXBnIP                         (abs)        007D29
_RXBnOVFL                       (abs)        007BA6
_RXCKP                          (abs)        007DC5
_RXDTP                          (abs)        007DC5
_RXERRCNT                       (abs)        000F75
_RXERRCNTbits                   (abs)        000F75
_RXF0EID0                       (abs)        007818
_RXF0EID1                       (abs)        007819
_RXF0EID10                      (abs)        007812
_RXF0EID11                      (abs)        007813
_RXF0EID12                      (abs)        007814
_RXF0EID13                      (abs)        007815
_RXF0EID14                      (abs)        007816
_RXF0EID15                      (abs)        007817
_RXF0EID16                      (abs)        007808
_RXF0EID17                      (abs)        007809
_RXF0EID2                       (abs)        00781A
_RXF0EID3                       (abs)        00781B
_RXF0EID4                       (abs)        00781C
_RXF0EID5                       (abs)        00781D
_RXF0EID6                       (abs)        00781E
_RXF0EID7                       (abs)        00781F
_RXF0EID8                       (abs)        007810
_RXF0EID9                       (abs)        007811
_RXF0EIDH                       (abs)        000F02
_RXF0EIDHbits                   (abs)        000F02
_RXF0EIDL                       (abs)        000F03
_RXF0EIDLbits                   (abs)        000F03
_RXF0EN                         (abs)        006EA0
_RXF0EXIDEN                     (abs)        00780B
_RXF0SID0                       (abs)        00780D
_RXF0SID1                       (abs)        00780E
_RXF0SID10                      (abs)        007807
_RXF0SID2                       (abs)        00780F
_RXF0SID3                       (abs)        007800
_RXF0SID4                       (abs)        007801
_RXF0SID5                       (abs)        007802
_RXF0SID6                       (abs)        007803
_RXF0SID7                       (abs)        007804
_RXF0SID8                       (abs)        007805
_RXF0SID9                       (abs)        007806
_RXF0SIDH                       (abs)        000F00
_RXF0SIDHbits                   (abs)        000F00
_RXF0SIDL                       (abs)        000F01
_RXF0SIDLbits                   (abs)        000F01
_RXF10EID0                      (abs)        006BB8
_RXF10EID1                      (abs)        006BB9
_RXF10EID10                     (abs)        006BB2
_RXF10EID11                     (abs)        006BB3
_RXF10EID12                     (abs)        006BB4
_RXF10EID13                     (abs)        006BB5
_RXF10EID14                     (abs)        006BB6
_RXF10EID15                     (abs)        006BB7
_RXF10EID16                     (abs)        006BA8
_RXF10EID17                     (abs)        006BA9
_RXF10EID2                      (abs)        006BBA
_RXF10EID3                      (abs)        006BBB
_RXF10EID4                      (abs)        006BBC
_RXF10EID5                      (abs)        006BBD
_RXF10EID6                      (abs)        006BBE
_RXF10EID7                      (abs)        006BBF
_RXF10EID8                      (abs)        006BB0
_RXF10EID9                      (abs)        006BB1
_RXF10EIDH                      (abs)        000D76
_RXF10EIDHbits                  (abs)        000D76
_RXF10EIDL                      (abs)        000D77
_RXF10EIDLbits                  (abs)        000D77
_RXF10EN                        (abs)        006EAA
_RXF10EXIDEN                    (abs)        006BAB
_RXF10SID0                      (abs)        006BAD
_RXF10SID1                      (abs)        006BAE
_RXF10SID10                     (abs)        006BA7
_RXF10SID2                      (abs)        006BAF
_RXF10SID3                      (abs)        006BA0
_RXF10SID4                      (abs)        006BA1
_RXF10SID5                      (abs)        006BA2
_RXF10SID6                      (abs)        006BA3
_RXF10SID7                      (abs)        006BA4
_RXF10SID8                      (abs)        006BA5
_RXF10SID9                      (abs)        006BA6
_RXF10SIDH                      (abs)        000D74
_RXF10SIDHbits                  (abs)        000D74
_RXF10SIDL                      (abs)        000D75
_RXF10SIDLbits                  (abs)        000D75
_RXF11EID0                      (abs)        006BD8
_RXF11EID1                      (abs)        006BD9
_RXF11EID10                     (abs)        006BD2
_RXF11EID11                     (abs)        006BD3
_RXF11EID12                     (abs)        006BD4
_RXF11EID13                     (abs)        006BD5
_RXF11EID14                     (abs)        006BD6
_RXF11EID15                     (abs)        006BD7
_RXF11EID16                     (abs)        006BC8
_RXF11EID17                     (abs)        006BC9
_RXF11EID2                      (abs)        006BDA
_RXF11EID3                      (abs)        006BDB
_RXF11EID4                      (abs)        006BDC
_RXF11EID5                      (abs)        006BDD
_RXF11EID6                      (abs)        006BDE
_RXF11EID7                      (abs)        006BDF
_RXF11EID8                      (abs)        006BD0
_RXF11EID9                      (abs)        006BD1
_RXF11EIDH                      (abs)        000D7A
_RXF11EIDHbits                  (abs)        000D7A
_RXF11EIDL                      (abs)        000D7B
_RXF11EIDLbits                  (abs)        000D7B
_RXF11EN                        (abs)        006EAB
_RXF11EXIDEN                    (abs)        006BCB
_RXF11SID0                      (abs)        006BCD
_RXF11SID1                      (abs)        006BCE
_RXF11SID10                     (abs)        006BC7
_RXF11SID2                      (abs)        006BCF
_RXF11SID3                      (abs)        006BC0
_RXF11SID4                      (abs)        006BC1
_RXF11SID5                      (abs)        006BC2
_RXF11SID6                      (abs)        006BC3
_RXF11SID7                      (abs)        006BC4
_RXF11SID8                      (abs)        006BC5
_RXF11SID9                      (abs)        006BC6
_RXF11SIDH                      (abs)        000D78
_RXF11SIDHbits                  (abs)        000D78
_RXF11SIDL                      (abs)        000D79
_RXF11SIDLbits                  (abs)        000D79
_RXF12EID0                      (abs)        006C18
_RXF12EID1                      (abs)        006C19
_RXF12EID10                     (abs)        006C12
_RXF12EID11                     (abs)        006C13
_RXF12EID12                     (abs)        006C14
_RXF12EID13                     (abs)        006C15
_RXF12EID14                     (abs)        006C16
_RXF12EID15                     (abs)        006C17
_RXF12EID16                     (abs)        006C08
_RXF12EID17                     (abs)        006C09
_RXF12EID2                      (abs)        006C1A
_RXF12EID3                      (abs)        006C1B
_RXF12EID4                      (abs)        006C1C
_RXF12EID5                      (abs)        006C1D
_RXF12EID6                      (abs)        006C1E
_RXF12EID7                      (abs)        006C1F
_RXF12EID8                      (abs)        006C10
_RXF12EID9                      (abs)        006C11
_RXF12EIDH                      (abs)        000D82
_RXF12EIDHbits                  (abs)        000D82
_RXF12EIDL                      (abs)        000D83
_RXF12EIDLbits                  (abs)        000D83
_RXF12EN                        (abs)        006EAC
_RXF12EXIDEN                    (abs)        006C0B
_RXF12SID0                      (abs)        006C0D
_RXF12SID1                      (abs)        006C0E
_RXF12SID10                     (abs)        006C07
_RXF12SID2                      (abs)        006C0F
_RXF12SID3                      (abs)        006C00
_RXF12SID4                      (abs)        006C01
_RXF12SID5                      (abs)        006C02
_RXF12SID6                      (abs)        006C03
_RXF12SID7                      (abs)        006C04
_RXF12SID8                      (abs)        006C05
_RXF12SID9                      (abs)        006C06
_RXF12SIDH                      (abs)        000D80
_RXF12SIDHbits                  (abs)        000D80
_RXF12SIDL                      (abs)        000D81
_RXF12SIDLbits                  (abs)        000D81
_RXF13EID0                      (abs)        006C38
_RXF13EID1                      (abs)        006C39
_RXF13EID10                     (abs)        006C32
_RXF13EID11                     (abs)        006C33
_RXF13EID12                     (abs)        006C34
_RXF13EID13                     (abs)        006C35
_RXF13EID14                     (abs)        006C36
_RXF13EID15                     (abs)        006C37
_RXF13EID16                     (abs)        006C28
_RXF13EID17                     (abs)        006C29
_RXF13EID2                      (abs)        006C3A
_RXF13EID3                      (abs)        006C3B
_RXF13EID4                      (abs)        006C3C
_RXF13EID5                      (abs)        006C3D
_RXF13EID6                      (abs)        006C3E
_RXF13EID7                      (abs)        006C3F
_RXF13EID8                      (abs)        006C30
_RXF13EID9                      (abs)        006C31
_RXF13EIDH                      (abs)        000D86
_RXF13EIDHbits                  (abs)        000D86
_RXF13EIDL                      (abs)        000D87
_RXF13EIDLbits                  (abs)        000D87
_RXF13EN                        (abs)        006EAD
_RXF13EXIDEN                    (abs)        006C2B
_RXF13SID0                      (abs)        006C2D
_RXF13SID1                      (abs)        006C2E
_RXF13SID10                     (abs)        006C27
_RXF13SID2                      (abs)        006C2F
_RXF13SID3                      (abs)        006C20
_RXF13SID4                      (abs)        006C21
_RXF13SID5                      (abs)        006C22
_RXF13SID6                      (abs)        006C23
_RXF13SID7                      (abs)        006C24
_RXF13SID8                      (abs)        006C25
_RXF13SID9                      (abs)        006C26
_RXF13SIDH                      (abs)        000D84
_RXF13SIDHbits                  (abs)        000D84
_RXF13SIDL                      (abs)        000D85
_RXF13SIDLbits                  (abs)        000D85
_RXF14EID0                      (abs)        006C58
_RXF14EID1                      (abs)        006C59
_RXF14EID10                     (abs)        006C52
_RXF14EID11                     (abs)        006C53
_RXF14EID12                     (abs)        006C54
_RXF14EID13                     (abs)        006C55
_RXF14EID14                     (abs)        006C56
_RXF14EID15                     (abs)        006C57
_RXF14EID16                     (abs)        006C48
_RXF14EID17                     (abs)        006C49
_RXF14EID2                      (abs)        006C5A
_RXF14EID3                      (abs)        006C5B
_RXF14EID4                      (abs)        006C5C
_RXF14EID5                      (abs)        006C5D
_RXF14EID6                      (abs)        006C5E
_RXF14EID7                      (abs)        006C5F
_RXF14EID8                      (abs)        006C50
_RXF14EID9                      (abs)        006C51
_RXF14EIDH                      (abs)        000D8A
_RXF14EIDHbits                  (abs)        000D8A
_RXF14EIDL                      (abs)        000D8B
_RXF14EIDLbits                  (abs)        000D8B
_RXF14EN                        (abs)        006EAE
_RXF14EXIDEN                    (abs)        006C4B
_RXF14SID0                      (abs)        006C4D
_RXF14SID1                      (abs)        006C4E
_RXF14SID10                     (abs)        006C47
_RXF14SID2                      (abs)        006C4F
_RXF14SID3                      (abs)        006C40
_RXF14SID4                      (abs)        006C41
_RXF14SID5                      (abs)        006C42
_RXF14SID6                      (abs)        006C43
_RXF14SID7                      (abs)        006C44
_RXF14SID8                      (abs)        006C45
_RXF14SID9                      (abs)        006C46
_RXF14SIDH                      (abs)        000D88
_RXF14SIDHbits                  (abs)        000D88
_RXF14SIDL                      (abs)        000D89
_RXF14SIDLbits                  (abs)        000D89
_RXF15EID0                      (abs)        006C98
_RXF15EID1                      (abs)        006C99
_RXF15EID10                     (abs)        006C92
_RXF15EID11                     (abs)        006C93
_RXF15EID12                     (abs)        006C94
_RXF15EID13                     (abs)        006C95
_RXF15EID14                     (abs)        006C96
_RXF15EID15                     (abs)        006C97
_RXF15EID16                     (abs)        006C88
_RXF15EID17                     (abs)        006C89
_RXF15EID2                      (abs)        006C9A
_RXF15EID3                      (abs)        006C9B
_RXF15EID4                      (abs)        006C9C
_RXF15EID5                      (abs)        006C9D
_RXF15EID6                      (abs)        006C9E
_RXF15EID7                      (abs)        006C9F
_RXF15EID8                      (abs)        006C90
_RXF15EID9                      (abs)        006C91
_RXF15EIDH                      (abs)        000D92
_RXF15EIDHbits                  (abs)        000D92
_RXF15EIDL                      (abs)        000D93
_RXF15EIDLbits                  (abs)        000D93
_RXF15EN                        (abs)        006EAF
_RXF15EXIDEN                    (abs)        006C8B
_RXF15SID0                      (abs)        006C8D
_RXF15SID1                      (abs)        006C8E
_RXF15SID10                     (abs)        006C87
_RXF15SID2                      (abs)        006C8F
_RXF15SID3                      (abs)        006C80
_RXF15SID4                      (abs)        006C81
_RXF15SID5                      (abs)        006C82
_RXF15SID6                      (abs)        006C83
_RXF15SID7                      (abs)        006C84
_RXF15SID8                      (abs)        006C85
_RXF15SID9                      (abs)        006C86
_RXF15SIDH                      (abs)        000D90
_RXF15SIDHbits                  (abs)        000D90
_RXF15SIDL                      (abs)        000D91
_RXF15SIDLbits                  (abs)        000D91
_RXF1EID0                       (abs)        007838
_RXF1EID1                       (abs)        007839
_RXF1EID10                      (abs)        007832
_RXF1EID11                      (abs)        007833
_RXF1EID12                      (abs)        007834
_RXF1EID13                      (abs)        007835
_RXF1EID14                      (abs)        007836
_RXF1EID15                      (abs)        007837
_RXF1EID16                      (abs)        007828
_RXF1EID17                      (abs)        007829
_RXF1EID2                       (abs)        00783A
_RXF1EID3                       (abs)        00783B
_RXF1EID4                       (abs)        00783C
_RXF1EID5                       (abs)        00783D
_RXF1EID6                       (abs)        00783E
_RXF1EID7                       (abs)        00783F
_RXF1EID8                       (abs)        007830
_RXF1EID9                       (abs)        007831
_RXF1EIDH                       (abs)        000F06
_RXF1EIDHbits                   (abs)        000F06
_RXF1EIDL                       (abs)        000F07
_RXF1EIDLbits                   (abs)        000F07
_RXF1EN                         (abs)        006EA1
_RXF1EXIDEN                     (abs)        00782B
_RXF1SID0                       (abs)        00782D
_RXF1SID1                       (abs)        00782E
_RXF1SID10                      (abs)        007827
_RXF1SID2                       (abs)        00782F
_RXF1SID3                       (abs)        007820
_RXF1SID4                       (abs)        007821
_RXF1SID5                       (abs)        007822
_RXF1SID6                       (abs)        007823
_RXF1SID7                       (abs)        007824
_RXF1SID8                       (abs)        007825
_RXF1SID9                       (abs)        007826
_RXF1SIDH                       (abs)        000F04
_RXF1SIDHbits                   (abs)        000F04
_RXF1SIDL                       (abs)        000F05
_RXF1SIDLbits                   (abs)        000F05
_RXF2EID0                       (abs)        007858
_RXF2EID1                       (abs)        007859
_RXF2EID10                      (abs)        007852
_RXF2EID11                      (abs)        007853
_RXF2EID12                      (abs)        007854
_RXF2EID13                      (abs)        007855
_RXF2EID14                      (abs)        007856
_RXF2EID15                      (abs)        007857
_RXF2EID16                      (abs)        007848
_RXF2EID17                      (abs)        007849
_RXF2EID2                       (abs)        00785A
_RXF2EID3                       (abs)        00785B
_RXF2EID4                       (abs)        00785C
_RXF2EID5                       (abs)        00785D
_RXF2EID6                       (abs)        00785E
_RXF2EID7                       (abs)        00785F
_RXF2EID8                       (abs)        007850
_RXF2EID9                       (abs)        007851
_RXF2EIDH                       (abs)        000F0A
_RXF2EIDHbits                   (abs)        000F0A
_RXF2EIDL                       (abs)        000F0B
_RXF2EIDLbits                   (abs)        000F0B
_RXF2EN                         (abs)        006EA2
_RXF2EXIDEN                     (abs)        00784B
_RXF2SID0                       (abs)        00784D
_RXF2SID1                       (abs)        00784E
_RXF2SID10                      (abs)        007847
_RXF2SID2                       (abs)        00784F
_RXF2SID3                       (abs)        007840
_RXF2SID4                       (abs)        007841
_RXF2SID5                       (abs)        007842
_RXF2SID6                       (abs)        007843
_RXF2SID7                       (abs)        007844
_RXF2SID8                       (abs)        007845
_RXF2SID9                       (abs)        007846
_RXF2SIDH                       (abs)        000F08
_RXF2SIDHbits                   (abs)        000F08
_RXF2SIDL                       (abs)        000F09
_RXF2SIDLbits                   (abs)        000F09
_RXF3EID0                       (abs)        007878
_RXF3EID1                       (abs)        007879
_RXF3EID10                      (abs)        007872
_RXF3EID11                      (abs)        007873
_RXF3EID12                      (abs)        007874
_RXF3EID13                      (abs)        007875
_RXF3EID14                      (abs)        007876
_RXF3EID15                      (abs)        007877
_RXF3EID16                      (abs)        007868
_RXF3EID17                      (abs)        007869
_RXF3EID2                       (abs)        00787A
_RXF3EID3                       (abs)        00787B
_RXF3EID4                       (abs)        00787C
_RXF3EID5                       (abs)        00787D
_RXF3EID6                       (abs)        00787E
_RXF3EID7                       (abs)        00787F
_RXF3EID8                       (abs)        007870
_RXF3EID9                       (abs)        007871
_RXF3EIDH                       (abs)        000F0E
_RXF3EIDHbits                   (abs)        000F0E
_RXF3EIDL                       (abs)        000F0F
_RXF3EIDLbits                   (abs)        000F0F
_RXF3EN                         (abs)        006EA3
_RXF3EXIDEN                     (abs)        00786B
_RXF3SID0                       (abs)        00786D
_RXF3SID1                       (abs)        00786E
_RXF3SID10                      (abs)        007867
_RXF3SID2                       (abs)        00786F
_RXF3SID3                       (abs)        007860
_RXF3SID4                       (abs)        007861
_RXF3SID5                       (abs)        007862
_RXF3SID6                       (abs)        007863
_RXF3SID7                       (abs)        007864
_RXF3SID8                       (abs)        007865
_RXF3SID9                       (abs)        007866
_RXF3SIDH                       (abs)        000F0C
_RXF3SIDHbits                   (abs)        000F0C
_RXF3SIDL                       (abs)        000F0D
_RXF3SIDLbits                   (abs)        000F0D
_RXF4EID0                       (abs)        007898
_RXF4EID1                       (abs)        007899
_RXF4EID10                      (abs)        007892
_RXF4EID11                      (abs)        007893
_RXF4EID12                      (abs)        007894
_RXF4EID13                      (abs)        007895
_RXF4EID14                      (abs)        007896
_RXF4EID15                      (abs)        007897
_RXF4EID16                      (abs)        007888
_RXF4EID17                      (abs)        007889
_RXF4EID2                       (abs)        00789A
_RXF4EID3                       (abs)        00789B
_RXF4EID4                       (abs)        00789C
_RXF4EID5                       (abs)        00789D
_RXF4EID6                       (abs)        00789E
_RXF4EID7                       (abs)        00789F
_RXF4EID8                       (abs)        007890
_RXF4EID9                       (abs)        007891
_RXF4EIDH                       (abs)        000F12
_RXF4EIDHbits                   (abs)        000F12
_RXF4EIDL                       (abs)        000F13
_RXF4EIDLbits                   (abs)        000F13
_RXF4EN                         (abs)        006EA4
_RXF4EXIDEN                     (abs)        00788B
_RXF4SID0                       (abs)        00788D
_RXF4SID1                       (abs)        00788E
_RXF4SID10                      (abs)        007887
_RXF4SID2                       (abs)        00788F
_RXF4SID3                       (abs)        007880
_RXF4SID4                       (abs)        007881
_RXF4SID5                       (abs)        007882
_RXF4SID6                       (abs)        007883
_RXF4SID7                       (abs)        007884
_RXF4SID8                       (abs)        007885
_RXF4SID9                       (abs)        007886
_RXF4SIDH                       (abs)        000F10
_RXF4SIDHbits                   (abs)        000F10
_RXF4SIDL                       (abs)        000F11
_RXF4SIDLbits                   (abs)        000F11
_RXF5EID0                       (abs)        0078B8
_RXF5EID1                       (abs)        0078B9
_RXF5EID10                      (abs)        0078B2
_RXF5EID11                      (abs)        0078B3
_RXF5EID12                      (abs)        0078B4
_RXF5EID13                      (abs)        0078B5
_RXF5EID14                      (abs)        0078B6
_RXF5EID15                      (abs)        0078B7
_RXF5EID16                      (abs)        0078A8
_RXF5EID17                      (abs)        0078A9
_RXF5EID2                       (abs)        0078BA
_RXF5EID3                       (abs)        0078BB
_RXF5EID4                       (abs)        0078BC
_RXF5EID5                       (abs)        0078BD
_RXF5EID6                       (abs)        0078BE
_RXF5EID7                       (abs)        0078BF
_RXF5EID8                       (abs)        0078B0
_RXF5EID9                       (abs)        0078B1
_RXF5EIDH                       (abs)        000F16
_RXF5EIDHbits                   (abs)        000F16
_RXF5EIDL                       (abs)        000F17
_RXF5EIDLbits                   (abs)        000F17
_RXF5EN                         (abs)        006EA5
_RXF5EXIDEN                     (abs)        0078AB
_RXF5SID0                       (abs)        0078AD
_RXF5SID1                       (abs)        0078AE
_RXF5SID10                      (abs)        0078A7
_RXF5SID2                       (abs)        0078AF
_RXF5SID3                       (abs)        0078A0
_RXF5SID4                       (abs)        0078A1
_RXF5SID5                       (abs)        0078A2
_RXF5SID6                       (abs)        0078A3
_RXF5SID7                       (abs)        0078A4
_RXF5SID8                       (abs)        0078A5
_RXF5SID9                       (abs)        0078A6
_RXF5SIDH                       (abs)        000F14
_RXF5SIDHbits                   (abs)        000F14
_RXF5SIDL                       (abs)        000F15
_RXF5SIDLbits                   (abs)        000F15
_RXF6EID0                       (abs)        006B18
_RXF6EID1                       (abs)        006B19
_RXF6EID10                      (abs)        006B12
_RXF6EID11                      (abs)        006B13
_RXF6EID12                      (abs)        006B14
_RXF6EID13                      (abs)        006B15
_RXF6EID14                      (abs)        006B16
_RXF6EID15                      (abs)        006B17
_RXF6EID16                      (abs)        006B08
_RXF6EID17                      (abs)        006B09
_RXF6EID2                       (abs)        006B1A
_RXF6EID3                       (abs)        006B1B
_RXF6EID4                       (abs)        006B1C
_RXF6EID5                       (abs)        006B1D
_RXF6EID6                       (abs)        006B1E
_RXF6EID7                       (abs)        006B1F
_RXF6EID8                       (abs)        006B10
_RXF6EID9                       (abs)        006B11
_RXF6EIDH                       (abs)        000D62
_RXF6EIDHbits                   (abs)        000D62
_RXF6EIDL                       (abs)        000D63
_RXF6EIDLbits                   (abs)        000D63
_RXF6EN                         (abs)        006EA6
_RXF6EXIDEN                     (abs)        006B0B
_RXF6SID0                       (abs)        006B0D
_RXF6SID1                       (abs)        006B0E
_RXF6SID10                      (abs)        006B07
_RXF6SID2                       (abs)        006B0F
_RXF6SID3                       (abs)        006B00
_RXF6SID4                       (abs)        006B01
_RXF6SID5                       (abs)        006B02
_RXF6SID6                       (abs)        006B03
_RXF6SID7                       (abs)        006B04
_RXF6SID8                       (abs)        006B05
_RXF6SID9                       (abs)        006B06
_RXF6SIDH                       (abs)        000D60
_RXF6SIDHbits                   (abs)        000D60
_RXF6SIDL                       (abs)        000D61
_RXF6SIDLbits                   (abs)        000D61
_RXF7EID0                       (abs)        006B38
_RXF7EID1                       (abs)        006B39
_RXF7EID10                      (abs)        006B32
_RXF7EID11                      (abs)        006B33
_RXF7EID12                      (abs)        006B34
_RXF7EID13                      (abs)        006B35
_RXF7EID14                      (abs)        006B36
_RXF7EID15                      (abs)        006B37
_RXF7EID16                      (abs)        006B28
_RXF7EID17                      (abs)        006B29
_RXF7EID2                       (abs)        006B3A
_RXF7EID3                       (abs)        006B3B
_RXF7EID4                       (abs)        006B3C
_RXF7EID5                       (abs)        006B3D
_RXF7EID6                       (abs)        006B3E
_RXF7EID7                       (abs)        006B3F
_RXF7EID8                       (abs)        006B30
_RXF7EID9                       (abs)        006B31
_RXF7EIDH                       (abs)        000D66
_RXF7EIDHbits                   (abs)        000D66
_RXF7EIDL                       (abs)        000D67
_RXF7EIDLbits                   (abs)        000D67
_RXF7EN                         (abs)        006EA7
_RXF7EXIDEN                     (abs)        006B2B
_RXF7SID0                       (abs)        006B2D
_RXF7SID1                       (abs)        006B2E
_RXF7SID10                      (abs)        006B27
_RXF7SID2                       (abs)        006B2F
_RXF7SID3                       (abs)        006B20
_RXF7SID4                       (abs)        006B21
_RXF7SID5                       (abs)        006B22
_RXF7SID6                       (abs)        006B23
_RXF7SID7                       (abs)        006B24
_RXF7SID8                       (abs)        006B25
_RXF7SID9                       (abs)        006B26
_RXF7SIDH                       (abs)        000D64
_RXF7SIDHbits                   (abs)        000D64
_RXF7SIDL                       (abs)        000D65
_RXF7SIDLbits                   (abs)        000D65
_RXF8EID0                       (abs)        006B58
_RXF8EID1                       (abs)        006B59
_RXF8EID10                      (abs)        006B52
_RXF8EID11                      (abs)        006B53
_RXF8EID12                      (abs)        006B54
_RXF8EID13                      (abs)        006B55
_RXF8EID14                      (abs)        006B56
_RXF8EID15                      (abs)        006B57
_RXF8EID16                      (abs)        006B48
_RXF8EID17                      (abs)        006B49
_RXF8EID2                       (abs)        006B5A
_RXF8EID3                       (abs)        006B5B
_RXF8EID4                       (abs)        006B5C
_RXF8EID5                       (abs)        006B5D
_RXF8EID6                       (abs)        006B5E
_RXF8EID7                       (abs)        006B5F
_RXF8EID8                       (abs)        006B50
_RXF8EID9                       (abs)        006B51
_RXF8EIDH                       (abs)        000D6A
_RXF8EIDHbits                   (abs)        000D6A
_RXF8EIDL                       (abs)        000D6B
_RXF8EIDLbits                   (abs)        000D6B
_RXF8EN                         (abs)        006EA8
_RXF8EXIDEN                     (abs)        006B4B
_RXF8SID0                       (abs)        006B4D
_RXF8SID1                       (abs)        006B4E
_RXF8SID10                      (abs)        006B47
_RXF8SID2                       (abs)        006B4F
_RXF8SID3                       (abs)        006B40
_RXF8SID4                       (abs)        006B41
_RXF8SID5                       (abs)        006B42
_RXF8SID6                       (abs)        006B43
_RXF8SID7                       (abs)        006B44
_RXF8SID8                       (abs)        006B45
_RXF8SID9                       (abs)        006B46
_RXF8SIDH                       (abs)        000D68
_RXF8SIDHbits                   (abs)        000D68
_RXF8SIDL                       (abs)        000D69
_RXF8SIDLbits                   (abs)        000D69
_RXF9EID0                       (abs)        006B98
_RXF9EID1                       (abs)        006B99
_RXF9EID10                      (abs)        006B92
_RXF9EID11                      (abs)        006B93
_RXF9EID12                      (abs)        006B94
_RXF9EID13                      (abs)        006B95
_RXF9EID14                      (abs)        006B96
_RXF9EID15                      (abs)        006B97
_RXF9EID16                      (abs)        006B88
_RXF9EID17                      (abs)        006B89
_RXF9EID2                       (abs)        006B9A
_RXF9EID3                       (abs)        006B9B
_RXF9EID4                       (abs)        006B9C
_RXF9EID5                       (abs)        006B9D
_RXF9EID6                       (abs)        006B9E
_RXF9EID7                       (abs)        006B9F
_RXF9EID8                       (abs)        006B90
_RXF9EID9                       (abs)        006B91
_RXF9EIDH                       (abs)        000D72
_RXF9EIDHbits                   (abs)        000D72
_RXF9EIDL                       (abs)        000D73
_RXF9EIDLbits                   (abs)        000D73
_RXF9EN                         (abs)        006EA9
_RXF9EXIDEN                     (abs)        006B8B
_RXF9SID0                       (abs)        006B8D
_RXF9SID1                       (abs)        006B8E
_RXF9SID10                      (abs)        006B87
_RXF9SID2                       (abs)        006B8F
_RXF9SID3                       (abs)        006B80
_RXF9SID4                       (abs)        006B81
_RXF9SID5                       (abs)        006B82
_RXF9SID6                       (abs)        006B83
_RXF9SID7                       (abs)        006B84
_RXF9SID8                       (abs)        006B85
_RXF9SID9                       (abs)        006B86
_RXF9SIDH                       (abs)        000D70
_RXF9SIDHbits                   (abs)        000D70
_RXF9SIDL                       (abs)        000D71
_RXF9SIDLbits                   (abs)        000D71
_RXFBCON0                       (abs)        000DE0
_RXFBCON0bits                   (abs)        000DE0
_RXFBCON1                       (abs)        000DE1
_RXFBCON1bits                   (abs)        000DE1
_RXFBCON2                       (abs)        000DE2
_RXFBCON2bits                   (abs)        000DE2
_RXFBCON3                       (abs)        000DE3
_RXFBCON3bits                   (abs)        000DE3
_RXFBCON4                       (abs)        000DE4
_RXFBCON4bits                   (abs)        000DE4
_RXFBCON5                       (abs)        000DE5
_RXFBCON5bits                   (abs)        000DE5
_RXFBCON6                       (abs)        000DE6
_RXFBCON6bits                   (abs)        000DE6
_RXFBCON7                       (abs)        000DE7
_RXFBCON7bits                   (abs)        000DE7
_RXFCON0                        (abs)        000DD4
_RXFCON0bits                    (abs)        000DD4
_RXFCON1                        (abs)        000DD5
_RXFCON1bits                    (abs)        000DD5
_RXM0EID0                       (abs)        0078D8
_RXM0EID1                       (abs)        0078D9
_RXM0EID10                      (abs)        0078D2
_RXM0EID11                      (abs)        0078D3
_RXM0EID12                      (abs)        0078D4
_RXM0EID13                      (abs)        0078D5
_RXM0EID14                      (abs)        0078D6
_RXM0EID15                      (abs)        0078D7
_RXM0EID16                      (abs)        0078C8
_RXM0EID17                      (abs)        0078C9
_RXM0EID2                       (abs)        0078DA
_RXM0EID3                       (abs)        0078DB
_RXM0EID4                       (abs)        0078DC
_RXM0EID5                       (abs)        0078DD
_RXM0EID6                       (abs)        0078DE
_RXM0EID7                       (abs)        0078DF
_RXM0EID8                       (abs)        0078D0
_RXM0EID9                       (abs)        0078D1
_RXM0EIDH                       (abs)        000F1A
_RXM0EIDHbits                   (abs)        000F1A
_RXM0EIDL                       (abs)        000F1B
_RXM0EIDLbits                   (abs)        000F1B
_RXM0EXIDM                      (abs)        0078CB
_RXM0SID0                       (abs)        0078CD
_RXM0SID1                       (abs)        0078CE
_RXM0SID10                      (abs)        0078C7
_RXM0SID2                       (abs)        0078CF
_RXM0SID3                       (abs)        0078C0
_RXM0SID4                       (abs)        0078C1
_RXM0SID5                       (abs)        0078C2
_RXM0SID6                       (abs)        0078C3
_RXM0SID7                       (abs)        0078C4
_RXM0SID8                       (abs)        0078C5
_RXM0SID9                       (abs)        0078C6
_RXM0SIDH                       (abs)        000F18
_RXM0SIDHbits                   (abs)        000F18
_RXM0SIDL                       (abs)        000F19
_RXM0SIDLbits                   (abs)        000F19
_RXM1EID0                       (abs)        0078F8
_RXM1EID1                       (abs)        0078F9
_RXM1EID10                      (abs)        0078F2
_RXM1EID11                      (abs)        0078F3
_RXM1EID12                      (abs)        0078F4
_RXM1EID13                      (abs)        0078F5
_RXM1EID14                      (abs)        0078F6
_RXM1EID15                      (abs)        0078F7
_RXM1EID16                      (abs)        0078E8
_RXM1EID17                      (abs)        0078E9
_RXM1EID2                       (abs)        0078FA
_RXM1EID3                       (abs)        0078FB
_RXM1EID4                       (abs)        0078FC
_RXM1EID5                       (abs)        0078FD
_RXM1EID6                       (abs)        0078FE
_RXM1EID7                       (abs)        0078FF
_RXM1EID8                       (abs)        0078F0
_RXM1EID9                       (abs)        0078F1
_RXM1EIDH                       (abs)        000F1E
_RXM1EIDHbits                   (abs)        000F1E
_RXM1EIDL                       (abs)        000F1F
_RXM1EIDLbits                   (abs)        000F1F
_RXM1EXIDEN                     (abs)        0078EB
_RXM1SID0                       (abs)        0078ED
_RXM1SID1                       (abs)        0078EE
_RXM1SID10                      (abs)        0078E7
_RXM1SID2                       (abs)        0078EF
_RXM1SID3                       (abs)        0078E0
_RXM1SID4                       (abs)        0078E1
_RXM1SID5                       (abs)        0078E2
_RXM1SID6                       (abs)        0078E3
_RXM1SID7                       (abs)        0078E4
_RXM1SID8                       (abs)        0078E5
_RXM1SID9                       (abs)        0078E6
_RXM1SIDH                       (abs)        000F1C
_RXM1SIDHbits                   (abs)        000F1C
_RXM1SIDL                       (abs)        000F1D
_RXM1SIDLbits                   (abs)        000F1D
_RXWARN                         (abs)        007BA1
_R_NOT_W                        (abs)        007E3A
_R_W                            (abs)        007E3A
_R_nW                           (abs)        007E3A
_ReadTimer1                     text32       001F12
_ReadUSART                      text31       001CE4
_SAM                            (abs)        007B8E
_SBOREN                         (abs)        007E86
_SCK                            (abs)        007C13
_SCKP                           (abs)        007DC4
_SCL                            (abs)        007C13
_SCS0                           (abs)        007E98
_SCS1                           (abs)        007E99
_SDA                            (abs)        007C14
_SDFLC                          (abs)        000DD8
_SDFLCbits                      (abs)        000DD8
_SDI                            (abs)        007C14
_SDO                            (abs)        007C15
_SEG1PH0                        (abs)        007B8B
_SEG1PH1                        (abs)        007B8C
_SEG1PH2                        (abs)        007B8D
_SEG2PH0                        (abs)        007B90
_SEG2PH1                        (abs)        007B91
_SEG2PH2                        (abs)        007B92
_SEG2PHT                        (abs)        007B8F
_SEG2PHTS                       (abs)        007B8F
_SEN                            (abs)        007E28
_SENDB                          (abs)        007D63
_SENDB1                         (abs)        007D63
_SJW0                           (abs)        007B86
_SJW1                           (abs)        007B87
_SMP                            (abs)        007E3F
_SOSCEN                         (abs)        007E6B
_SOSCEN3                        (abs)        007D8B
_SPBRG                          (abs)        000FAF
_SPBRG1                         (abs)        000FAF
_SPBRGH                         (abs)        000FB0
_SPEN                           (abs)        007D5F
_SREN                           (abs)        007D5D
_SRENA                          (abs)        007D5D
_SS                             (abs)        007C05
_SSPADD                         (abs)        000FC8
_SSPBUF                         (abs)        000FC9
_SSPCON1                        (abs)        000FC6
_SSPCON1bits                    (abs)        000FC6
_SSPCON2                        (abs)        000FC5
_SSPCON2bits                    (abs)        000FC5
_SSPEN                          (abs)        007E35
_SSPIE                          (abs)        007CEB
_SSPIF                          (abs)        007CF3
_SSPIP                          (abs)        007CFB
_SSPM0                          (abs)        007E30
_SSPM1                          (abs)        007E31
_SSPM2                          (abs)        007E32
_SSPM3                          (abs)        007E33
_SSPOV                          (abs)        007E36
_SSPSTAT                        (abs)        000FC7
_SSPSTATbits                    (abs)        000FC7
_START                          (abs)        007E3B
_STATUS                         (abs)        000FD8
_STATUSbits                     (abs)        000FD8
_STKFUL                         (abs)        007FE7
_STKOVF                         (abs)        007FE7
_STKPTR                         (abs)        000FFC
_STKPTR0                        (abs)        007FE0
_STKPTR1                        (abs)        007FE1
_STKPTR2                        (abs)        007FE2
_STKPTR3                        (abs)        007FE3
_STKPTR4                        (abs)        007FE4
_STKPTRbits                     (abs)        000FFC
_STKUNF                         (abs)        007FE6
_STOP                           (abs)        007E3C
_SWDTE                          (abs)        007E88
_SWDTEN                         (abs)        007E88
_SYNC                           (abs)        007D64
_SYNC1                          (abs)        007D64
_SleepIfOkay                    text39       0016C2
_T08BIT                         (abs)        007EAE
_T0CKI                          (abs)        007C04
_T0CON                          (abs)        000FD5
_T0CONbits                      (abs)        000FD5
_T0CS                           (abs)        007EAD
_T0IE                           (abs)        007F95
_T0IF                           (abs)        007F92
_T0IP                           (abs)        007F8A
_T0PS0                          (abs)        007EA8
_T0PS1                          (abs)        007EA9
_T0PS2                          (abs)        007EAA
_T0PS3                          (abs)        007EAB
_T0SE                           (abs)        007EAC
_T13CKI                         (abs)        007C10
_T1CKPS0                        (abs)        007E6C
_T1CKPS1                        (abs)        007E6D
_T1CON                          (abs)        000FCD
_T1CONbits                      (abs)        000FCD
_T1INSYNC                       (abs)        007E6A
_T1OSCEN                        (abs)        007E6B
_T1OSI                          (abs)        007C11
_T1OSO                          (abs)        007C10
_T1RD16                         (abs)        007E6F
_T1RUN                          (abs)        007E6E
_T1SYNC                         (abs)        007E6A
_T2CKPS0                        (abs)        007E50
_T2CKPS1                        (abs)        007E51
_T2CON                          (abs)        000FCA
_T2CONbits                      (abs)        000FCA
_T2OUTPS0                       (abs)        007E53
_T2OUTPS1                       (abs)        007E54
_T2OUTPS2                       (abs)        007E55
_T2OUTPS3                       (abs)        007E56
_T3CCP1                         (abs)        007D8B
_T3CCP2                         (abs)        007D8E
_T3CKPS0                        (abs)        007D8C
_T3CKPS1                        (abs)        007D8D
_T3CON                          (abs)        000FB1
_T3CONbits                      (abs)        000FB1
_T3ECCP1                        (abs)        007D8E
_T3NSYNC                        (abs)        007D8A
_T3RD16                         (abs)        007D8F
_T3SYNC                         (abs)        007D8A
_TABLAT                         (abs)        000FF5
_TBLPTR                         (abs)        000FF6
_TBLPTRH                        (abs)        000FF7
_TBLPTRL                        (abs)        000FF6
_TBLPTRU                        (abs)        000FF8
_TEC0                           (abs)        007BB0
_TEC1                           (abs)        007BB1
_TEC2                           (abs)        007BB2
_TEC3                           (abs)        007BB3
_TEC4                           (abs)        007BB4
_TEC5                           (abs)        007BB5
_TEC6                           (abs)        007BB6
_TEC7                           (abs)        007BB7
_TMR0                           (abs)        000FD6
_TMR0H                          (abs)        000FD7
_TMR0IE                         (abs)        007F95
_TMR0IF                         (abs)        007F92
_TMR0IP                         (abs)        007F8A
_TMR0L                          (abs)        000FD6
_TMR0ON                         (abs)        007EAF
_TMR1                           (abs)        000FCE
_TMR1CS                         (abs)        007E69
_TMR1H                          (abs)        000FCF
_TMR1IE                         (abs)        007CE8
_TMR1IF                         (abs)        007CF0
_TMR1IP                         (abs)        007CF8
_TMR1L                          (abs)        000FCE
_TMR1ON                         (abs)        007E68
_TMR2                           (abs)        000FCC
_TMR2IE                         (abs)        007CE9
_TMR2IF                         (abs)        007CF1
_TMR2IP                         (abs)        007CF9
_TMR2ON                         (abs)        007E52
_TMR3                           (abs)        000FB2
_TMR3CS                         (abs)        007D89
_TMR3H                          (abs)        000FB3
_TMR3IE                         (abs)        007D01
_TMR3IF                         (abs)        007D09
_TMR3IP                         (abs)        007D11
_TMR3L                          (abs)        000FB2
_TMR3ON                         (abs)        007D88
_TO                             (abs)        007E83
_TOS                            (abs)        000FFD
_TOSH                           (abs)        000FFE
_TOSL                           (abs)        000FFD
_TOSU                           (abs)        000FFF
_TOUTPS0                        (abs)        007E53
_TOUTPS1                        (abs)        007E54
_TOUTPS2                        (abs)        007E55
_TOUTPS3                        (abs)        007E56
_TRISA                          (abs)        000F92
_TRISA0                         (abs)        007C90
_TRISA1                         (abs)        007C91
_TRISA2                         (abs)        007C92
_TRISA3                         (abs)        007C93
_TRISA4                         (abs)        007C94
_TRISA5                         (abs)        007C95
_TRISA6                         (abs)        007C96
_TRISA7                         (abs)        007C97
_TRISAbits                      (abs)        000F92
_TRISB                          (abs)        000F93
_TRISB0                         (abs)        007C98
_TRISB1                         (abs)        007C99
_TRISB2                         (abs)        007C9A
_TRISB3                         (abs)        007C9B
_TRISB4                         (abs)        007C9C
_TRISB5                         (abs)        007C9D
_TRISB6                         (abs)        007C9E
_TRISB7                         (abs)        007C9F
_TRISBbits                      (abs)        000F93
_TRISC                          (abs)        000F94
_TRISC0                         (abs)        007CA0
_TRISC1                         (abs)        007CA1
_TRISC2                         (abs)        007CA2
_TRISC3                         (abs)        007CA3
_TRISC4                         (abs)        007CA4
_TRISC5                         (abs)        007CA5
_TRISC6                         (abs)        007CA6
_TRISC7                         (abs)        007CA7
_TRISCbits                      (abs)        000F94
_TRMT                           (abs)        007D61
_TRMT1                          (abs)        007D61
_TUN0                           (abs)        007CD8
_TUN1                           (abs)        007CD9
_TUN2                           (abs)        007CDA
_TUN3                           (abs)        007CDB
_TUN4                           (abs)        007CDC
_TX                             (abs)        007C16
_TX0IE                          (abs)        006FE2
_TX0IF                          (abs)        007A07
_TX1IE                          (abs)        006FE3
_TX1IF                          (abs)        007987
_TX1IP                          (abs)        007CFC
_TX2IE                          (abs)        006FE4
_TX2IF                          (abs)        007907
_TX9                            (abs)        007D66
_TX91                           (abs)        007D66
_TX9D                           (abs)        007D60
_TX9D1                          (abs)        007D60
_TXB0ABT                        (abs)        007A06
_TXB0CON                        (abs)        000F40
_TXB0CONbits                    (abs)        000F40
_TXB0D0                         (abs)        000F46
_TXB0D00                        (abs)        007A30
_TXB0D01                        (abs)        007A31
_TXB0D02                        (abs)        007A32
_TXB0D03                        (abs)        007A33
_TXB0D04                        (abs)        007A34
_TXB0D05                        (abs)        007A35
_TXB0D06                        (abs)        007A36
_TXB0D07                        (abs)        007A37
_TXB0D0bits                     (abs)        000F46
_TXB0D1                         (abs)        000F47
_TXB0D10                        (abs)        007A38
_TXB0D11                        (abs)        007A39
_TXB0D12                        (abs)        007A3A
_TXB0D13                        (abs)        007A3B
_TXB0D14                        (abs)        007A3C
_TXB0D15                        (abs)        007A3D
_TXB0D16                        (abs)        007A3E
_TXB0D17                        (abs)        007A3F
_TXB0D1bits                     (abs)        000F47
_TXB0D2                         (abs)        000F48
_TXB0D20                        (abs)        007A40
_TXB0D21                        (abs)        007A41
_TXB0D22                        (abs)        007A42
_TXB0D23                        (abs)        007A43
_TXB0D24                        (abs)        007A44
_TXB0D25                        (abs)        007A45
_TXB0D26                        (abs)        007A46
_TXB0D27                        (abs)        007A47
_TXB0D2bits                     (abs)        000F48
_TXB0D3                         (abs)        000F49
_TXB0D30                        (abs)        007A48
_TXB0D31                        (abs)        007A49
_TXB0D32                        (abs)        007A4A
_TXB0D33                        (abs)        007A4B
_TXB0D34                        (abs)        007A4C
_TXB0D35                        (abs)        007A4D
_TXB0D36                        (abs)        007A4E
_TXB0D37                        (abs)        007A4F
_TXB0D3bits                     (abs)        000F49
_TXB0D4                         (abs)        000F4A
_TXB0D40                        (abs)        007A50
_TXB0D41                        (abs)        007A51
_TXB0D42                        (abs)        007A52
_TXB0D43                        (abs)        007A53
_TXB0D44                        (abs)        007A54
_TXB0D45                        (abs)        007A55
_TXB0D46                        (abs)        007A56
_TXB0D47                        (abs)        007A57
_TXB0D4bits                     (abs)        000F4A
_TXB0D5                         (abs)        000F4B
_TXB0D50                        (abs)        007A58
_TXB0D51                        (abs)        007A59
_TXB0D52                        (abs)        007A5A
_TXB0D53                        (abs)        007A5B
_TXB0D54                        (abs)        007A5C
_TXB0D55                        (abs)        007A5D
_TXB0D56                        (abs)        007A5E
_TXB0D57                        (abs)        007A5F
_TXB0D5bits                     (abs)        000F4B
_TXB0D6                         (abs)        000F4C
_TXB0D60                        (abs)        007A60
_TXB0D61                        (abs)        007A61
_TXB0D62                        (abs)        007A62
_TXB0D63                        (abs)        007A63
_TXB0D64                        (abs)        007A64
_TXB0D65                        (abs)        007A65
_TXB0D66                        (abs)        007A66
_TXB0D67                        (abs)        007A67
_TXB0D6bits                     (abs)        000F4C
_TXB0D7                         (abs)        000F4D
_TXB0D70                        (abs)        007A68
_TXB0D71                        (abs)        007A69
_TXB0D72                        (abs)        007A6A
_TXB0D73                        (abs)        007A6B
_TXB0D74                        (abs)        007A6C
_TXB0D75                        (abs)        007A6D
_TXB0D76                        (abs)        007A6E
_TXB0D77                        (abs)        007A6F
_TXB0D7bits                     (abs)        000F4D
_TXB0DLC                        (abs)        000F45
_TXB0DLC0                       (abs)        007A28
_TXB0DLC1                       (abs)        007A29
_TXB0DLC2                       (abs)        007A2A
_TXB0DLC3                       (abs)        007A2B
_TXB0DLCbits                    (abs)        000F45
_TXB0EID0                       (abs)        007A20
_TXB0EID1                       (abs)        007A21
_TXB0EID10                      (abs)        007A1A
_TXB0EID11                      (abs)        007A1B
_TXB0EID12                      (abs)        007A1C
_TXB0EID13                      (abs)        007A1D
_TXB0EID14                      (abs)        007A1E
_TXB0EID15                      (abs)        007A1F
_TXB0EID16                      (abs)        007A10
_TXB0EID17                      (abs)        007A11
_TXB0EID2                       (abs)        007A22
_TXB0EID3                       (abs)        007A23
_TXB0EID4                       (abs)        007A24
_TXB0EID5                       (abs)        007A25
_TXB0EID6                       (abs)        007A26
_TXB0EID7                       (abs)        007A27
_TXB0EID8                       (abs)        007A18
_TXB0EID9                       (abs)        007A19
_TXB0EIDH                       (abs)        000F43
_TXB0EIDHbits                   (abs)        000F43
_TXB0EIDL                       (abs)        000F44
_TXB0EIDLbits                   (abs)        000F44
_TXB0ERR                        (abs)        007A04
_TXB0EXIDE                      (abs)        007A13
_TXB0IE                         (abs)        007D1A
_TXB0IF                         (abs)        007D22
_TXB0IP                         (abs)        007D2A
_TXB0LARB                       (abs)        007A05
_TXB0PRI0                       (abs)        007A00
_TXB0PRI1                       (abs)        007A01
_TXB0REQ                        (abs)        007A03
_TXB0RTR                        (abs)        007A2E
_TXB0SID0                       (abs)        007A15
_TXB0SID1                       (abs)        007A16
_TXB0SID10                      (abs)        007A0F
_TXB0SID2                       (abs)        007A17
_TXB0SID3                       (abs)        007A08
_TXB0SID4                       (abs)        007A09
_TXB0SID5                       (abs)        007A0A
_TXB0SID6                       (abs)        007A0B
_TXB0SID7                       (abs)        007A0C
_TXB0SID8                       (abs)        007A0D
_TXB0SID9                       (abs)        007A0E
_TXB0SIDH                       (abs)        000F41
_TXB0SIDHbits                   (abs)        000F41
_TXB0SIDL                       (abs)        000F42
_TXB0SIDLbits                   (abs)        000F42
_TXB1ABT                        (abs)        007986
_TXB1CON                        (abs)        000F30
_TXB1CONbits                    (abs)        000F30
_TXB1D0                         (abs)        000F36
_TXB1D00                        (abs)        0079B0
_TXB1D01                        (abs)        0079B1
_TXB1D02                        (abs)        0079B2
_TXB1D03                        (abs)        0079B3
_TXB1D04                        (abs)        0079B4
_TXB1D05                        (abs)        0079B5
_TXB1D06                        (abs)        0079B6
_TXB1D07                        (abs)        0079B7
_TXB1D0bits                     (abs)        000F36
_TXB1D1                         (abs)        000F37
_TXB1D10                        (abs)        0079B8
_TXB1D11                        (abs)        0079B9
_TXB1D12                        (abs)        0079BA
_TXB1D13                        (abs)        0079BB
_TXB1D14                        (abs)        0079BC
_TXB1D15                        (abs)        0079BD
_TXB1D16                        (abs)        0079BE
_TXB1D17                        (abs)        0079BF
_TXB1D1bits                     (abs)        000F37
_TXB1D2                         (abs)        000F38
_TXB1D20                        (abs)        0079C0
_TXB1D21                        (abs)        0079C1
_TXB1D22                        (abs)        0079C2
_TXB1D23                        (abs)        0079C3
_TXB1D24                        (abs)        0079C4
_TXB1D25                        (abs)        0079C5
_TXB1D26                        (abs)        0079C6
_TXB1D27                        (abs)        0079C7
_TXB1D2bits                     (abs)        000F38
_TXB1D3                         (abs)        000F39
_TXB1D30                        (abs)        0079C8
_TXB1D31                        (abs)        0079C9
_TXB1D32                        (abs)        0079CA
_TXB1D33                        (abs)        0079CB
_TXB1D34                        (abs)        0079CC
_TXB1D35                        (abs)        0079CD
_TXB1D36                        (abs)        0079CE
_TXB1D37                        (abs)        0079CF
_TXB1D3bits                     (abs)        000F39
_TXB1D4                         (abs)        000F3A
_TXB1D40                        (abs)        0079D0
_TXB1D41                        (abs)        0079D1
_TXB1D42                        (abs)        0079D2
_TXB1D43                        (abs)        0079D3
_TXB1D44                        (abs)        0079D4
_TXB1D45                        (abs)        0079D5
_TXB1D46                        (abs)        0079D6
_TXB1D47                        (abs)        0079D7
_TXB1D4bits                     (abs)        000F3A
_TXB1D5                         (abs)        000F3B
_TXB1D50                        (abs)        0079D8
_TXB1D51                        (abs)        0079D9
_TXB1D52                        (abs)        0079DA
_TXB1D53                        (abs)        0079DB
_TXB1D54                        (abs)        0079DC
_TXB1D55                        (abs)        0079DD
_TXB1D56                        (abs)        0079DE
_TXB1D57                        (abs)        0079DF
_TXB1D5bits                     (abs)        000F3B
_TXB1D6                         (abs)        000F3C
_TXB1D60                        (abs)        0079E0
_TXB1D61                        (abs)        0079E1
_TXB1D62                        (abs)        0079E2
_TXB1D63                        (abs)        0079E3
_TXB1D64                        (abs)        0079E4
_TXB1D65                        (abs)        0079E5
_TXB1D66                        (abs)        0079E6
_TXB1D67                        (abs)        0079E7
_TXB1D6bits                     (abs)        000F3C
_TXB1D7                         (abs)        000F3D
_TXB1D70                        (abs)        0079E8
_TXB1D71                        (abs)        0079E9
_TXB1D72                        (abs)        0079EA
_TXB1D73                        (abs)        0079EB
_TXB1D74                        (abs)        0079EC
_TXB1D75                        (abs)        0079ED
_TXB1D76                        (abs)        0079EE
_TXB1D77                        (abs)        0079EF
_TXB1D7bits                     (abs)        000F3D
_TXB1DLC                        (abs)        000F35
_TXB1DLC0                       (abs)        0079A8
_TXB1DLC1                       (abs)        0079A9
_TXB1DLC2                       (abs)        0079AA
_TXB1DLC3                       (abs)        0079AB
_TXB1DLCbits                    (abs)        000F35
_TXB1EID0                       (abs)        0079A0
_TXB1EID1                       (abs)        0079A1
_TXB1EID10                      (abs)        00799A
_TXB1EID11                      (abs)        00799B
_TXB1EID12                      (abs)        00799C
_TXB1EID13                      (abs)        00799D
_TXB1EID14                      (abs)        00799E
_TXB1EID15                      (abs)        00799F
_TXB1EID16                      (abs)        007990
_TXB1EID17                      (abs)        007991
_TXB1EID2                       (abs)        0079A2
_TXB1EID3                       (abs)        0079A3
_TXB1EID4                       (abs)        0079A4
_TXB1EID5                       (abs)        0079A5
_TXB1EID6                       (abs)        0079A6
_TXB1EID7                       (abs)        0079A7
_TXB1EID8                       (abs)        007998
_TXB1EID9                       (abs)        007999
_TXB1EIDH                       (abs)        000F33
_TXB1EIDHbits                   (abs)        000F33
_TXB1EIDL                       (abs)        000F34
_TXB1EIDLbits                   (abs)        000F34
_TXB1ERR                        (abs)        007984
_TXB1EXIDE                      (abs)        007993
_TXB1IE                         (abs)        007D1B
_TXB1IF                         (abs)        007D23
_TXB1IP                         (abs)        007D2B
_TXB1LARB                       (abs)        007985
_TXB1PRI0                       (abs)        007980
_TXB1PRI1                       (abs)        007981
_TXB1REQ                        (abs)        007983
_TXB1RTR                        (abs)        0079AE
_TXB1SID0                       (abs)        007995
_TXB1SID1                       (abs)        007996
_TXB1SID10                      (abs)        00798F
_TXB1SID2                       (abs)        007997
_TXB1SID3                       (abs)        007988
_TXB1SID4                       (abs)        007989
_TXB1SID5                       (abs)        00798A
_TXB1SID6                       (abs)        00798B
_TXB1SID7                       (abs)        00798C
_TXB1SID8                       (abs)        00798D
_TXB1SID9                       (abs)        00798E
_TXB1SIDH                       (abs)        000F31
_TXB1SIDHbits                   (abs)        000F31
_TXB1SIDL                       (abs)        000F32
_TXB1SIDLbits                   (abs)        000F32
_TXB2ABT                        (abs)        007906
_TXB2CON                        (abs)        000F20
_TXB2CONbits                    (abs)        000F20
_TXB2D0                         (abs)        000F26
_TXB2D00                        (abs)        007930
_TXB2D01                        (abs)        007931
_TXB2D02                        (abs)        007932
_TXB2D03                        (abs)        007933
_TXB2D04                        (abs)        007934
_TXB2D05                        (abs)        007935
_TXB2D06                        (abs)        007936
_TXB2D07                        (abs)        007937
_TXB2D0bits                     (abs)        000F26
_TXB2D1                         (abs)        000F27
_TXB2D10                        (abs)        007938
_TXB2D11                        (abs)        007939
_TXB2D12                        (abs)        00793A
_TXB2D13                        (abs)        00793B
_TXB2D14                        (abs)        00793C
_TXB2D15                        (abs)        00793D
_TXB2D16                        (abs)        00793E
_TXB2D17                        (abs)        00793F
_TXB2D1bits                     (abs)        000F27
_TXB2D2                         (abs)        000F28
_TXB2D20                        (abs)        007940
_TXB2D21                        (abs)        007941
_TXB2D22                        (abs)        007942
_TXB2D23                        (abs)        007943
_TXB2D24                        (abs)        007944
_TXB2D25                        (abs)        007945
_TXB2D26                        (abs)        007946
_TXB2D27                        (abs)        007947
_TXB2D2bits                     (abs)        000F28
_TXB2D3                         (abs)        000F29
_TXB2D30                        (abs)        007948
_TXB2D31                        (abs)        007949
_TXB2D32                        (abs)        00794A
_TXB2D33                        (abs)        00794B
_TXB2D34                        (abs)        00794C
_TXB2D35                        (abs)        00794D
_TXB2D36                        (abs)        00794E
_TXB2D37                        (abs)        00794F
_TXB2D3bits                     (abs)        000F29
_TXB2D4                         (abs)        000F2A
_TXB2D40                        (abs)        007950
_TXB2D41                        (abs)        007951
_TXB2D42                        (abs)        007952
_TXB2D43                        (abs)        007953
_TXB2D44                        (abs)        007954
_TXB2D45                        (abs)        007955
_TXB2D46                        (abs)        007956
_TXB2D47                        (abs)        007957
_TXB2D4bits                     (abs)        000F2A
_TXB2D5                         (abs)        000F2B
_TXB2D50                        (abs)        007958
_TXB2D51                        (abs)        007959
_TXB2D52                        (abs)        00795A
_TXB2D53                        (abs)        00795B
_TXB2D54                        (abs)        00795C
_TXB2D55                        (abs)        00795D
_TXB2D56                        (abs)        00795E
_TXB2D57                        (abs)        00795F
_TXB2D5bits                     (abs)        000F2B
_TXB2D6                         (abs)        000F2C
_TXB2D60                        (abs)        007960
_TXB2D61                        (abs)        007961
_TXB2D62                        (abs)        007962
_TXB2D63                        (abs)        007963
_TXB2D64                        (abs)        007964
_TXB2D65                        (abs)        007965
_TXB2D66                        (abs)        007966
_TXB2D67                        (abs)        007967
_TXB2D6bits                     (abs)        000F2C
_TXB2D7                         (abs)        000F2D
_TXB2D70                        (abs)        007968
_TXB2D71                        (abs)        007969
_TXB2D72                        (abs)        00796A
_TXB2D73                        (abs)        00796B
_TXB2D74                        (abs)        00796C
_TXB2D75                        (abs)        00796D
_TXB2D76                        (abs)        00796E
_TXB2D77                        (abs)        00796F
_TXB2D7bits                     (abs)        000F2D
_TXB2DLC                        (abs)        000F25
_TXB2DLC0                       (abs)        007928
_TXB2DLC1                       (abs)        007929
_TXB2DLC2                       (abs)        00792A
_TXB2DLC3                       (abs)        00792B
_TXB2DLCbits                    (abs)        000F25
_TXB2EID0                       (abs)        007920
_TXB2EID1                       (abs)        007921
_TXB2EID10                      (abs)        00791A
_TXB2EID11                      (abs)        00791B
_TXB2EID12                      (abs)        00791C
_TXB2EID13                      (abs)        00791D
_TXB2EID14                      (abs)        00791E
_TXB2EID15                      (abs)        00791F
_TXB2EID16                      (abs)        007910
_TXB2EID17                      (abs)        007911
_TXB2EID2                       (abs)        007922
_TXB2EID3                       (abs)        007923
_TXB2EID4                       (abs)        007924
_TXB2EID5                       (abs)        007925
_TXB2EID6                       (abs)        007926
_TXB2EID7                       (abs)        007927
_TXB2EID8                       (abs)        007918
_TXB2EID9                       (abs)        007919
_TXB2EIDH                       (abs)        000F23
_TXB2EIDHbits                   (abs)        000F23
_TXB2EIDL                       (abs)        000F24
_TXB2EIDLbits                   (abs)        000F24
_TXB2ERR                        (abs)        007904
_TXB2EXIDE                      (abs)        007913
_TXB2IE                         (abs)        007D1C
_TXB2IF                         (abs)        007D24
_TXB2IP                         (abs)        007D2C
_TXB2LARB                       (abs)        007905
_TXB2PRI0                       (abs)        007900
_TXB2PRI1                       (abs)        007901
_TXB2REQ                        (abs)        007903
_TXB2RTR                        (abs)        00792E
_TXB2SID0                       (abs)        007915
_TXB2SID1                       (abs)        007916
_TXB2SID10                      (abs)        00790F
_TXB2SID2                       (abs)        007917
_TXB2SID3                       (abs)        007908
_TXB2SID4                       (abs)        007909
_TXB2SID5                       (abs)        00790A
_TXB2SID6                       (abs)        00790B
_TXB2SID7                       (abs)        00790C
_TXB2SID8                       (abs)        00790D
_TXB2SID9                       (abs)        00790E
_TXB2SIDH                       (abs)        000F21
_TXB2SIDHbits                   (abs)        000F21
_TXB2SIDL                       (abs)        000F22
_TXB2SIDLbits                   (abs)        000F22
_TXBIE                          (abs)        000DFC
_TXBIEbits                      (abs)        000DFC
_TXBIFBXB2CON                   (abs)        007907
_TXBIFTXB1CON                   (abs)        007987
_TXBIP                          (abs)        007CFC
_TXBNIE                         (abs)        007D1C
_TXBNIF                         (abs)        007D24
_TXBNIP                         (abs)        007D2C
_TXBO                           (abs)        007BA5
_TXBP                           (abs)        007BA4
_TXBnIE                         (abs)        007D1C
_TXBnIF                         (abs)        007D24
_TXBnIP                         (abs)        007D2C
_TXCKP                          (abs)        007DC4
_TXEN                           (abs)        007D65
_TXEN1                          (abs)        007D65
_TXERRCNT                       (abs)        000F76
_TXERRCNTbits                   (abs)        000F76
_TXIE                           (abs)        007CEC
_TXIF                           (abs)        007CF4
_TXIP                           (abs)        007CFC
_TXREG                          (abs)        000FAD
_TXREG1                         (abs)        000FAD
_TXSTA                          (abs)        000FAC
_TXSTA1                         (abs)        000FAC
_TXSTA1bits                     (abs)        000FAC
_TXSTAbits                      (abs)        000FAC
_TXWARN                         (abs)        007BA2
_ToMainHigh_MQ                  bssBANK1     00016C
_ToMainHigh_recvmsg             text13       001D54
_ToMainHigh_sendmsg             text40       001E10
_ToMainLow_MQ                   bssBANK0     000061
_ToMainLow_recvmsg              text16       001D84
_ToMainLow_sendmsg              text30       001E86
_UA                             (abs)        007E39
_ULPWUIN                        (abs)        007C00
_USART_Status                   bssCOMRAM    000033
_VCFG0                          (abs)        007E0C
_VCFG01                         (abs)        007E0C
_VCFG1                          (abs)        007E0D
_VCFG11                         (abs)        007E0D
_VDIRMAG                        (abs)        007E97
_VREFM                          (abs)        007C02
_VREFP                          (abs)        007C03
_W4E                            (abs)        007DC1
_WAKDIS                         (abs)        007B97
_WAKFIL                         (abs)        007B96
_WAKIE                          (abs)        007D1E
_WAKIF                          (abs)        007D26
_WAKIP                          (abs)        007D2E
_WCOL                           (abs)        007E37
_WDTCON                         (abs)        000FD1
_WDTCONbits                     (abs)        000FD1
_WR                             (abs)        007D31
_WRE                            (abs)        007C21
_WREG                           (abs)        000FE8
_WREN                           (abs)        007D32
_WRERR                          (abs)        007D33
_WUE                            (abs)        007DC1
_WriteTimer0                    text44       001F36
_WriteTimer1                    text33       001F24
_ZERO                           (abs)        007EC2
__CFG_BBSIZ$1024                (abs)        000000
__CFG_BOREN$OFF                 (abs)        000000
__CFG_BORV$3                    (abs)        000000
__CFG_FCMEN$OFF                 (abs)        000000
__CFG_IESO$OFF                  (abs)        000000
__CFG_LPT1OSC$OFF               (abs)        000000
__CFG_LVP$OFF                   (abs)        000000
__CFG_MCLRE$ON                  (abs)        000000
__CFG_OSC$IRCIO67               (abs)        000000
__CFG_PBADEN$OFF                (abs)        000000
__CFG_PWRT$OFF                  (abs)        000000
__CFG_STVREN$OFF                (abs)        000000
__CFG_WDT$OFF                   (abs)        000000
__CFG_WDTPS$32768               (abs)        000000
__HRAM                          (abs)        000000
__Habs1                         abs1         000000
__Hbank0                        bank0        000000
__Hbank1                        bank1        000000
__Hbank10                       bank10       000000
__Hbank11                       bank11       000000
__Hbank12                       bank12       000000
__Hbank2                        bank2        000000
__Hbank3                        bank3        000000
__Hbank4                        bank4        000000
__Hbank5                        bank5        000000
__Hbank6                        bank6        000000
__Hbank7                        bank7        000000
__Hbank8                        bank8        000000
__Hbank9                        bank9        000000
__Hbigbss                       bigbss       000000
__Hbigdata                      bigdata      000000
__Hbigram                       bigram       000000
__Hbss                          bss          000000
__HbssBANK0                     bssBANK0     000000
__HbssBANK1                     bssBANK1     000000
__HbssCOMRAM                    bssCOMRAM    000000
__Hcinit                        cinit        000000
__Hclrtext                      clrtext      000000
__Hcomram                       comram       000000
__Hconfig                       config       30000E
__Hconst                        const        000000
__HcstackBANK0                  cstackBANK0  000000
__HcstackBANK1                  cstackBANK1  000000
__HcstackCOMRAM                 cstackCOMRAM 000000
__Hdata                         data         000000
__Heeprom_data                  eeprom_data  000000
__Hend_init                     end_init     0000C6
__Hfarbss                       farbss       000000
__Hfardata                      fardata      000000
__Hibigdata                     ibigdata     000000
__Hidata                        idata        000000
__Hidloc                        idloc        200008
__Hifardata                     ifardata     000000
__Hinit                         init         0000C2
__Hintcode                      intcode      000018
__Hintcode_body                 intcode_body 000000
__Hintcodelo                    intcodelo    0000C2
__Hintentry                     intentry     000000
__Hintret                       intret       000000
__Hintsave_regs                 intsave_regs 000000
__Hirdata                       irdata       000000
__Hmediumconst                  mediumconst  000000
__HnvBANK0                      nvBANK0      000000
__HnvCOMRAM                     nvCOMRAM     000000
__Hnvbit                        nvbit        000000
__Hnvrram                       nvrram       000000
__Hparam                        param0       000000
__Hparam0                       param0       000000
__Hpowerup                      powerup      0000C2
__Hram                          ram          000000
__Hramtop                       ramtop       000D00
__Hrbit                         rbit         000000
__Hrbss                         rbss         000000
__Hrdata                        rdata        000000
__Hreset_vec                    reset_vec    000006
__Hsfr                          sfr          000000
__Hsmallconst                   smallconst   000000
__Hstruct                       struct       000000
__Htemp                         temp         000000
__Htext                         text         000000
__Htext0                        text0        000000
__Htext1                        text1        000000
__Htext10                       text10       000000
__Htext11                       text11       000000
__Htext12                       text12       000000
__Htext13                       text13       000000
__Htext14                       text14       000000
__Htext15                       text15       000000
__Htext16                       text16       000000
__Htext17                       text17       000000
__Htext18                       text18       000000
__Htext19                       text19       000000
__Htext2                        text2        000000
__Htext20                       text20       000000
__Htext21                       text21       000000
__Htext22                       text22       000000
__Htext23                       text23       000000
__Htext24                       text24       000000
__Htext25                       text25       000000
__Htext26                       text26       000000
__Htext28                       text28       000000
__Htext29                       text29       000000
__Htext3                        text3        000000
__Htext30                       text30       000000
__Htext31                       text31       000000
__Htext32                       text32       000000
__Htext33                       text33       000000
__Htext34                       text34       000000
__Htext35                       text35       000000
__Htext37                       text37       000000
__Htext38                       text38       000000
__Htext39                       text39       000000
__Htext4                        text4        000000
__Htext40                       text40       000000
__Htext41                       text41       000000
__Htext42                       text42       000000
__Htext43                       text43       000000
__Htext44                       text44       000000
__Htext45                       text45       000000
__Htext46                       text46       000000
__Htext47                       text47       000000
__Htext48                       text48       000000
__Htext49                       text49       000000
__Htext5                        text5        000000
__Htext50                       text50       000000
__Htext51                       text51       000000
__Htext6                        text6        000000
__Htext7                        text7        000000
__Htext8                        text8        000000
__Htext9                        text9        000000
__LRAM                          (abs)        000001
__Labs1                         abs1         000000
__Lbank0                        bank0        000000
__Lbank1                        bank1        000000
__Lbank10                       bank10       000000
__Lbank11                       bank11       000000
__Lbank12                       bank12       000000
__Lbank2                        bank2        000000
__Lbank3                        bank3        000000
__Lbank4                        bank4        000000
__Lbank5                        bank5        000000
__Lbank6                        bank6        000000
__Lbank7                        bank7        000000
__Lbank8                        bank8        000000
__Lbank9                        bank9        000000
__Lbigbss                       bigbss       000000
__Lbigdata                      bigdata      000000
__Lbigram                       bigram       000000
__Lbss                          bss          000000
__LbssBANK0                     bssBANK0     000000
__LbssBANK1                     bssBANK1     000000
__LbssCOMRAM                    bssCOMRAM    000000
__Lcinit                        cinit        000000
__Lclrtext                      clrtext      000000
__Lcomram                       comram       000000
__Lconfig                       config       300000
__Lconst                        const        000000
__LcstackBANK0                  cstackBANK0  000000
__LcstackBANK1                  cstackBANK1  000000
__LcstackCOMRAM                 cstackCOMRAM 000000
__Ldata                         data         000000
__Leeprom_data                  eeprom_data  000000
__Lend_init                     end_init     0000C2
__Lfarbss                       farbss       000000
__Lfardata                      fardata      000000
__Libigdata                     ibigdata     000000
__Lidata                        idata        000000
__Lidloc                        idloc        200000
__Lifardata                     ifardata     000000
__Linit                         init         0000C2
__Lintcode                      intcode      000008
__Lintcode_body                 intcode_body 000000
__Lintcodelo                    intcodelo    000018
__Lintentry                     intentry     000000
__Lintret                       intret       000000
__Lintsave_regs                 intsave_regs 000000
__Lirdata                       irdata       000000
__Lmediumconst                  mediumconst  000000
__LnvBANK0                      nvBANK0      000000
__LnvCOMRAM                     nvCOMRAM     000000
__Lnvbit                        nvbit        000000
__Lnvrram                       nvrram       000000
__Lparam                        param0       000000
__Lparam0                       param0       000000
__Lpowerup                      powerup      0000C2
__Lram                          ram          000000
__Lramtop                       ramtop       000D00
__Lrbit                         rbit         000000
__Lrbss                         rbss         000000
__Lrdata                        rdata        000000
__Lreset_vec                    reset_vec    000000
__Lsfr                          sfr          000000
__Lsmallconst                   smallconst   000000
__Lstruct                       struct       000000
__Ltemp                         temp         000000
__Ltext                         text         000000
__Ltext0                        text0        000000
__Ltext1                        text1        000000
__Ltext10                       text10       000000
__Ltext11                       text11       000000
__Ltext12                       text12       000000
__Ltext13                       text13       000000
__Ltext14                       text14       000000
__Ltext15                       text15       000000
__Ltext16                       text16       000000
__Ltext17                       text17       000000
__Ltext18                       text18       000000
__Ltext19                       text19       000000
__Ltext2                        text2        000000
__Ltext20                       text20       000000
__Ltext21                       text21       000000
__Ltext22                       text22       000000
__Ltext23                       text23       000000
__Ltext24                       text24       000000
__Ltext25                       text25       000000
__Ltext26                       text26       000000
__Ltext28                       text28       000000
__Ltext29                       text29       000000
__Ltext3                        text3        000000
__Ltext30                       text30       000000
__Ltext31                       text31       000000
__Ltext32                       text32       000000
__Ltext33                       text33       000000
__Ltext34                       text34       000000
__Ltext35                       text35       000000
__Ltext37                       text37       000000
__Ltext38                       text38       000000
__Ltext39                       text39       000000
__Ltext4                        text4        000000
__Ltext40                       text40       000000
__Ltext41                       text41       000000
__Ltext42                       text42       000000
__Ltext43                       text43       000000
__Ltext44                       text44       000000
__Ltext45                       text45       000000
__Ltext46                       text46       000000
__Ltext47                       text47       000000
__Ltext48                       text48       000000
__Ltext49                       text49       000000
__Ltext5                        text5        000000
__Ltext50                       text50       000000
__Ltext51                       text51       000000
__Ltext6                        text6        000000
__Ltext7                        text7        000000
__Ltext8                        text8        000000
__Ltext9                        text9        000000
__S0                            (abs)        30000E
__S1                            (abs)        0001FC
___lwmod                        text26       001622
___lwmod@counter                cstackBANK1  0001A6
___lwmod@dividend               cstackBANK1  0001A2
___lwmod@divisor                cstackBANK1  0001A4
__accesstop                     (abs)        000060
__activetblptr                  (abs)        000000
__end_of_Delay1KTCYx            text25       001EEC
__end_of_FromMainHigh_recvmsg   text41       001DE4
__end_of_FromMainHigh_sendmsg   text21       001E10
__end_of_InterruptHandlerHigh   intcode_body 0017E8
__end_of_InterruptHandlerLow    intcodelo    0000C2
__end_of_OpenTimer1             text6        001CAC
__end_of_OpenUSART              text8        001570
__end_of_ReadTimer1             text32       001F24
__end_of_ReadUSART              text31       001D1C
__end_of_SleepIfOkay            text39       00175C
__end_of_ToMainHigh_recvmsg     text13       001D84
__end_of_ToMainHigh_sendmsg     text40       001E3C
__end_of_ToMainLow_recvmsg      text16       001DB4
__end_of_ToMainLow_sendmsg      text30       001EAA
__end_of_WriteTimer0            text44       001F48
__end_of_WriteTimer1            text33       001F36
__end_of___lwmod                text26       0016C2
__end_of__initialization        cinit        001E5C
__end_of_block_on_To_msgqueues  text9        001264
__end_of_check_msg              text24       001CE4
__end_of_enable_interrupts      text1        001F5A
__end_of_enter_sleep_mode       text42       001F60
__end_of_handle_start           text43       00133E
__end_of_i2c_configure_slave    text7        001E86
__end_of_i2c_int_handler        text37       00088A
__end_of_in_high_int            text12       001ED8
__end_of_in_low_int             text11       001A26
__end_of_in_main                text10       001ADC
__end_of_init_i2c               text3        0019C8
__end_of_init_queue             text19       0018F4
__end_of_init_queues            text5        001966
__end_of_init_timer1_lthread    text4        001F12
__end_of_init_uart_recv         text2        001EC4
__end_of_main                   text0        000BE6
__end_of_memcpy                 text23       001B32
__end_of_recv_msg               text20       000D26
__end_of_send_msg               text22       00107E
__end_of_start_i2c_slave_reply  text15       000F78
__end_of_timer0_int_handler     text38       001406
__end_of_timer0_lthread         text14       001F52
__end_of_timer1_int_handler     text28       001BD8
__end_of_timer1_lthread         text17       00186E
__end_of_uart_lthread           text18       001C26
__end_of_uart_recv_int_handler  text29       0014BC
__end_ofi1_memcpy               text35       001C6E
__end_ofi1_send_msg             text34       001622
__end_ofi2_check_msg            text49       001D54
__end_ofi2_in_high_int          text46       001F00
__end_ofi2_in_low_int           text45       001A84
__end_ofi2_memcpy               text50       001B88
__end_ofi2_recv_msg             text48       000E66
__end_ofi2_send_msg             text47       001184
__initialization                cinit        001E3C
__mediumconst                   mediumconst  000000
__pbssBANK0                     bssBANK0     000060
__pbssBANK1                     bssBANK1     000100
__pbssCOMRAM                    bssCOMRAM    000030
__pcinit                        cinit        001E3C
__pcstackBANK0                  cstackBANK0  000097
__pcstackBANK1                  cstackBANK1  0001A2
__pcstackCOMRAM                 cstackCOMRAM 000001
__pintcode                      intcode      000008
__pintcode_body                 intcode_body 00175C
__pintcodelo                    intcodelo    000018
__pnvBANK0                      nvBANK0      0000CB
__pnvCOMRAM                     nvCOMRAM     000034
__ptext0                        text0        00088A
__ptext1                        text1        001F52
__ptext10                       text10       001A84
__ptext11                       text11       0019C8
__ptext12                       text12       001EC4
__ptext13                       text13       001D54
__ptext14                       text14       001F48
__ptext15                       text15       000E66
__ptext16                       text16       001D84
__ptext17                       text17       0017E8
__ptext18                       text18       001BD8
__ptext19                       text19       00186E
__ptext2                        text2        001EAA
__ptext20                       text20       000BE6
__ptext21                       text21       001DE4
__ptext22                       text22       000F78
__ptext23                       text23       001ADC
__ptext24                       text24       001CAC
__ptext25                       text25       001ED8
__ptext26                       text26       001622
__ptext28                       text28       001B88
__ptext29                       text29       001406
__ptext3                        text3        001966
__ptext30                       text30       001E86
__ptext31                       text31       001CE4
__ptext32                       text32       001F12
__ptext33                       text33       001F24
__ptext34                       text34       001570
__ptext35                       text35       001C26
__ptext37                       text37       0000C6
__ptext38                       text38       00133E
__ptext39                       text39       0016C2
__ptext4                        text4        001F00
__ptext40                       text40       001E10
__ptext41                       text41       001DB4
__ptext42                       text42       001F5A
__ptext43                       text43       001264
__ptext44                       text44       001F36
__ptext45                       text45       001A26
__ptext46                       text46       001EEC
__ptext47                       text47       00107E
__ptext48                       text48       000D26
__ptext49                       text49       001D1C
__ptext5                        text5        0018F4
__ptext50                       text50       001B32
__ptext51                       text51       000000
__ptext6                        text6        001C6E
__ptext7                        text7        001E62
__ptext8                        text8        0014BC
__ptext9                        text9        001184
__ramtop                        ramtop       000D00
__size_of_Delay1KTCYx           (abs)        000000
__size_of_FromMainHigh_recvmsg  (abs)        000000
__size_of_FromMainHigh_sendmsg  (abs)        000000
__size_of_InterruptHandlerHigh  (abs)        000000
__size_of_InterruptHandlerLow   (abs)        000000
__size_of_OpenTimer1            (abs)        000000
__size_of_OpenUSART             (abs)        000000
__size_of_ReadTimer1            (abs)        000000
__size_of_ReadUSART             (abs)        000000
__size_of_SleepIfOkay           (abs)        000000
__size_of_ToMainHigh_recvmsg    (abs)        000000
__size_of_ToMainHigh_sendmsg    (abs)        000000
__size_of_ToMainLow_recvmsg     (abs)        000000
__size_of_ToMainLow_sendmsg     (abs)        000000
__size_of_WriteTimer0           (abs)        000000
__size_of_WriteTimer1           (abs)        000000
__size_of___lwmod               (abs)        000000
__size_of_block_on_To_msgqueues (abs)        000000
__size_of_check_msg             (abs)        000000
__size_of_enable_interrupts     (abs)        000000
__size_of_enter_sleep_mode      (abs)        000000
__size_of_handle_start          (abs)        000000
__size_of_i2c_configure_slave   (abs)        000000
__size_of_i2c_int_handler       (abs)        000000
__size_of_in_high_int           (abs)        000000
__size_of_in_low_int            (abs)        000000
__size_of_in_main               (abs)        000000
__size_of_init_i2c              (abs)        000000
__size_of_init_queue            (abs)        000000
__size_of_init_queues           (abs)        000000
__size_of_init_timer1_lthread   (abs)        000000
__size_of_init_uart_recv        (abs)        000000
__size_of_main                  (abs)        000000
__size_of_memcpy                (abs)        000000
__size_of_recv_msg              (abs)        000000
__size_of_send_msg              (abs)        000000
__size_of_start_i2c_slave_reply (abs)        000000
__size_of_timer0_int_handler    (abs)        000000
__size_of_timer0_lthread        (abs)        000000
__size_of_timer1_int_handler    (abs)        000000
__size_of_timer1_lthread        (abs)        000000
__size_of_uart_lthread          (abs)        000000
__size_of_uart_recv_int_handler (abs)        000000
__size_ofi1_memcpy              (abs)        000000
__size_ofi1_send_msg            (abs)        000000
__size_ofi2_check_msg           (abs)        000000
__size_ofi2_in_high_int         (abs)        000000
__size_ofi2_in_low_int          (abs)        000000
__size_ofi2_memcpy              (abs)        000000
__size_ofi2_recv_msg            (abs)        000000
__size_ofi2_send_msg            (abs)        000000
__smallconst                    smallconst   000000
_block_on_To_msgqueues          text9        001184
_check_msg                      text24       001CAC
_enable_interrupts              text1        001F52
_enter_sleep_mode               text42       001F5A
_errno                          bssCOMRAM    000030
_handle_start                   text43       001264
_i2c_configure_slave            text7        001E62
_i2c_int_handler                text37       0000C6
_ic_ptr                         nvBANK0      0000CB
_in_high_int                    text12       001EC4
_in_low_int                     text11       0019C8
_in_main                        text10       001A84
_init_i2c                       text3        001966
_init_queue                     text19       00186E
_init_queues                    text5        0018F4
_init_timer1_lthread            text4        001F00
_init_uart_recv                 text2        001EAA
_main                           text0        00088A
_memcpy                         text23       001ADC
_nA                             (abs)        007E3D
_nADDRESS                       (abs)        007E3D
_nBOR                           (abs)        007E80
_nDONE                          (abs)        007E11
_nFIFOEMPTY                     (abs)        007BA7
_nPD                            (abs)        007E82
_nPOR                           (abs)        007E81
_nRBPU                          (abs)        007F8F
_nRI                            (abs)        007E84
_nSS                            (abs)        007C05
_nT1SYNC                        (abs)        007E6A
_nT3SYNC                        (abs)        007D8A
_nTO                            (abs)        007E83
_nW                             (abs)        007E3A
_nWRITE                         (abs)        007E3A
_recv_msg                       text20       000BE6
_send_msg                       text22       000F78
_start_i2c_slave_reply          text15       000E66
_timer0_int_handler             text38       00133E
_timer0_lthread                 text14       001F48
_timer1_int_handler             text28       001B88
_timer1_lthread                 text17       0017E8
_uart_lthread                   text18       001BD8
_uart_recv_int_handler          text29       001406
_uc_ptr                         nvCOMRAM     000034
check_msg@qptr                  cstackBANK1  0001A2
end_of_initialization           cinit        001E5C
handle_start@data_read          cstackBANK0  000097
i1_memcpy                       text35       001C26
i1_send_msg                     text34       001570
i1memcpy@d                      cstackCOMRAM 000007
i1memcpy@d1                     cstackCOMRAM 000001
i1memcpy@n                      cstackCOMRAM 000005
i1memcpy@s                      cstackCOMRAM 000009
i1memcpy@s1                     cstackCOMRAM 000003
i1send_msg@data                 cstackCOMRAM 00000F
i1send_msg@length               cstackCOMRAM 00000D
i1send_msg@msgtype              cstackCOMRAM 00000E
i1send_msg@qmsg                 cstackCOMRAM 000015
i1send_msg@qptr                 cstackCOMRAM 00000B
i1send_msg@slot                 cstackCOMRAM 000014
i1send_msg@tlength              cstackCOMRAM 000012
i2_check_msg                    text49       001D1C
i2_in_high_int                  text46       001EEC
i2_in_low_int                   text45       001A26
i2_memcpy                       text50       001B32
i2_recv_msg                     text48       000D26
i2_send_msg                     text47       00107E
i2c_configure_slave@addr        cstackBANK0  0000CA
i2c_int_handler@data_read       cstackBANK0  0000BB
i2c_int_handler@data_written    cstackBANK0  0000B6
i2c_int_handler@error_buf       cstackBANK0  0000B3
i2c_int_handler@i2c_data        cstackBANK0  0000B8
i2c_int_handler@msg_ready       cstackBANK0  0000BA
i2c_int_handler@msg_to_send     cstackBANK0  0000B9
i2c_int_handler@overrun_error   cstackBANK0  0000B7
i2check_msg@qptr                cstackBANK0  000097
i2memcpy@d                      cstackBANK0  00009D
i2memcpy@d1                     cstackBANK0  000097
i2memcpy@n                      cstackBANK0  00009B
i2memcpy@s                      cstackBANK0  00009F
i2memcpy@s1                     cstackBANK0  000099
i2recv_msg@data                 cstackBANK0  0000A6
i2recv_msg@maxlength            cstackBANK0  0000A3
i2recv_msg@msgtype              cstackBANK0  0000A4
i2recv_msg@qmsg                 cstackBANK0  0000AD
i2recv_msg@qptr                 cstackBANK0  0000A1
i2recv_msg@slot                 cstackBANK0  0000AA
i2recv_msg@tlength              cstackBANK0  0000AB
i2send_msg@data                 cstackBANK0  0000A5
i2send_msg@length               cstackBANK0  0000A3
i2send_msg@msgtype              cstackBANK0  0000A4
i2send_msg@qmsg                 cstackBANK0  0000AB
i2send_msg@qptr                 cstackBANK0  0000A1
i2send_msg@slot                 cstackBANK0  0000AA
i2send_msg@tlength              cstackBANK0  0000A8
init_i2c@ic                     cstackBANK1  0001A2
init_queue@i                    cstackBANK1  0001A4
init_queue@qptr                 cstackBANK1  0001A2
init_timer1_lthread@tptr        cstackBANK1  0001A2
init_uart_recv@uc               cstackBANK1  0001A2
int_func                        intcode_body 00175C
intlevel0                       text         000000
intlevel1                       text         000000
intlevel2                       text         000000
intlevel3                       text         000000
main@ic                         cstackBANK1  0001E0
main@last_reg_recvd             cstackBANK1  0001D6
main@length                     cstackBANK1  0001DF
main@msgbuffer                  cstackBANK1  0001C7
main@msgtype                    cstackBANK1  0001DE
main@t0thread_data              cstackBANK1  0001D4
main@t1thread_data              cstackBANK1  0001DC
main@uc                         cstackBANK1  0001D7
main@uthread_data               cstackBANK1  0001D2
memcpy@d                        cstackBANK1  0001A8
memcpy@d1                       cstackBANK1  0001A2
memcpy@n                        cstackBANK1  0001A6
memcpy@s                        cstackBANK1  0001AA
memcpy@s1                       cstackBANK1  0001A4
recv_msg@data                   cstackBANK1  0001B1
recv_msg@maxlength              cstackBANK1  0001AE
recv_msg@msgtype                cstackBANK1  0001AF
recv_msg@qmsg                   cstackBANK1  0001B8
recv_msg@qptr                   cstackBANK1  0001AC
recv_msg@slot                   cstackBANK1  0001B5
recv_msg@tlength                cstackBANK1  0001B6
send_msg@data                   cstackBANK1  0001B0
send_msg@length                 cstackBANK1  0001AE
send_msg@msgtype                cstackBANK1  0001AF
send_msg@qmsg                   cstackBANK1  0001B5
send_msg@qptr                   cstackBANK1  0001AC
send_msg@slot                   cstackBANK1  0001B4
send_msg@tlength                cstackBANK1  0001B2
start                           init         0000C2
start_i2c_slave_reply@length    cstackBANK1  0001A2
start_i2c_slave_reply@msg       cstackBANK1  0001A3
start_initialization            cinit        001E3C
timer0_int_handler@length       cstackBANK0  0000B6
timer0_int_handler@msgtype      cstackBANK0  0000B8
timer0_int_handler@val          cstackBANK0  0000BA
timer0_lthread@msgbuffer        cstackBANK1  0001A8
timer0_lthread@msgval           cstackBANK1  0001AA
timer1_int_handler@result       cstackCOMRAM 00001D
timer1_lthread@retval           cstackBANK1  0001C5
timer1_lthread@tptr             cstackBANK1  0001BB
uart_lthread@length             cstackBANK1  0001A6
uart_lthread@msgbuffer          cstackBANK1  0001A8
uart_lthread@msgtype            cstackBANK1  0001A4


FUNCTION INFORMATION:

 *************** function _main *****************
 Defined at:
		line 74 in file "../src/main.c"
 Parameters:    Size  Location     Type
		None
 Auto vars:     Size  Location     Type
  ic             28   62[BANK1 ] struct __i2c_comm
  msgbuffer      11   37[BANK1 ] unsigned char [11]
  uc              5   53[BANK1 ] struct __uart_comm
  t1thread_dat    2   58[BANK1 ] struct __timer1_thread_s
  t0thread_dat    2   50[BANK1 ] struct __timer0_thread_s
  uthread_data    2   48[BANK1 ] struct __uart_thread_str
  length          1   61[BANK1 ] char 
  msgtype         1   60[BANK1 ] unsigned char 
  last_reg_rec    1   52[BANK1 ] unsigned char 
  i               1    0        unsigned char 
  c               1    0        unsigned char 
 Return value:  Size  Location     Type
		None               void
 Registers used:
		wreg, fsr0l, fsr0h, fsr1l, fsr1h, fsr2l, fsr2h, status,2, status,0, pclat, tosl, structret, tblptrl, tblptrh, tblptru, prodl, prodh, bsr, cstack
 Tracked objects:
		On entry : 
		On exit  : 
		Unchanged: 
 Data sizes:     COMRAM   BANK0   BANK1   BANK2   BANK3   BANK4   BANK5   BANK6   BANK7   BANK8   BANK9  BANK10  BANK11  BANK12
      Params:         0       0       0       0       0       0       0       0       0       0       0       0       0       0
      Locals:         0       0      53       0       0       0       0       0       0       0       0       0       0       0
      Temps:          0       0       1       0       0       0       0       0       0       0       0       0       0       0
      Totals:         0       0      54       0       0       0       0       0       0       0       0       0       0       0
Total ram usage:       54 bytes
 Hardware stack levels required when called:   14
 This function calls:
		_init_uart_recv
		_init_i2c
		_init_timer1_lthread
		_init_queues
		_OpenTimer1
		_enable_interrupts
		_i2c_configure_slave
		_OpenUSART
		_block_on_To_msgqueues
		_ToMainHigh_recvmsg
		_timer0_lthread
		_start_i2c_slave_reply
		_ToMainLow_recvmsg
		_timer1_lthread
		_uart_lthread
 This function is called by:
		Startup code after reset
 This function uses a non-reentrant model


 *************** function _enable_interrupts *****************
 Defined at:
		line 14 in file "../src/interrupts.c"
 Parameters:    Size  Location     Type
		None
 Auto vars:     Size  Location     Type
		None
 Return value:  Size  Location     Type
		None               void
 Registers used:
		None
 Tracked objects:
		On entry : 
		On exit  : 
		Unchanged: 
 Data sizes:     COMRAM   BANK0   BANK1   BANK2   BANK3   BANK4   BANK5   BANK6   BANK7   BANK8   BANK9  BANK10  BANK11  BANK12
      Params:         0       0       0       0       0       0       0       0       0       0       0       0       0       0
      Locals:         0       0       0       0       0       0       0       0       0       0       0       0       0       0
      Temps:          0       0       0       0       0       0       0       0       0       0       0       0       0       0
      Totals:         0       0       0       0       0       0       0       0       0       0       0       0       0       0
Total ram usage:        0 bytes
 Hardware stack levels used:    1
 Hardware stack levels required when called:   10
 This function calls:
		Nothing
 This function is called by:
		_main
 This function uses a non-reentrant model


 *************** function _init_uart_recv *****************
 Defined at:
		line 30 in file "../src/my_uart.c"
 Parameters:    Size  Location     Type
  uc              2    0[BANK1 ] PTR struct __uart_comm
		 -> main@uc(5), 
 Auto vars:     Size  Location     Type
		None
 Return value:  Size  Location     Type
		None               void
 Registers used:
		wreg, fsr2l, fsr2h, status,2, status,0
 Tracked objects:
		On entry : 
		On exit  : 
		Unchanged: 
 Data sizes:     COMRAM   BANK0   BANK1   BANK2   BANK3   BANK4   BANK5   BANK6   BANK7   BANK8   BANK9  BANK10  BANK11  BANK12
      Params:         0       0       2       0       0       0       0       0       0       0       0       0       0       0
      Locals:         0       0       0       0       0       0       0       0       0       0       0       0       0       0
      Temps:          0       0       0       0       0       0       0       0       0       0       0       0       0       0
      Totals:         0       0       2       0       0       0       0       0       0       0       0       0       0       0
Total ram usage:        2 bytes
 Hardware stack levels used:    1
 Hardware stack levels required when called:   10
 This function calls:
		Nothing
 This function is called by:
		_main
 This function uses a non-reentrant model


 *************** function _init_i2c *****************
 Defined at:
		line 271 in file "../src/my_i2c.c"
 Parameters:    Size  Location     Type
  ic              2    0[BANK1 ] PTR struct __i2c_comm
		 -> main@ic(28), 
 Auto vars:     Size  Location     Type
		None
 Return value:  Size  Location     Type
		None               void
 Registers used:
		wreg, fsr2l, fsr2h, status,2, status,0
 Tracked objects:
		On entry : 
		On exit  : 
		Unchanged: 
 Data sizes:     COMRAM   BANK0   BANK1   BANK2   BANK3   BANK4   BANK5   BANK6   BANK7   BANK8   BANK9  BANK10  BANK11  BANK12
      Params:         0       0       2       0       0       0       0       0       0       0       0       0       0       0
      Locals:         0       0       0       0       0       0       0       0       0       0       0       0       0       0
      Temps:          0       0       0       0       0       0       0       0       0       0       0       0       0       0
      Totals:         0       0       2       0       0       0       0       0       0       0       0       0       0       0
Total ram usage:        2 bytes
 Hardware stack levels used:    1
 Hardware stack levels required when called:   10
 This function calls:
		Nothing
 This function is called by:
		_main
 This function uses a non-reentrant model


 *************** function _init_timer1_lthread *****************
 Defined at:
		line 6 in file "../src/timer1_thread.c"
 Parameters:    Size  Location     Type
  tptr            2    0[BANK1 ] PTR struct __timer1_thre
		 -> main@t1thread_data(2), 
 Auto vars:     Size  Location     Type
		None
 Return value:  Size  Location     Type
		None               void
 Registers used:
		wreg, fsr2l, fsr2h
 Tracked objects:
		On entry : 
		On exit  : 
		Unchanged: 
 Data sizes:     COMRAM   BANK0   BANK1   BANK2   BANK3   BANK4   BANK5   BANK6   BANK7   BANK8   BANK9  BANK10  BANK11  BANK12
      Params:         0       0       2       0       0       0       0       0       0       0       0       0       0       0
      Locals:         0       0       0       0       0       0       0       0       0       0       0       0       0       0
      Temps:          0       0       0       0       0       0       0       0       0       0       0       0       0       0
      Totals:         0       0       2       0       0       0       0       0       0       0       0       0       0       0
Total ram usage:        2 bytes
 Hardware stack levels used:    1
 Hardware stack levels required when called:   10
 This function calls:
		Nothing
 This function is called by:
		_main
 This function uses a non-reentrant model


 *************** function _init_queues *****************
 Defined at:
		line 194 in file "../src/messages.c"
 Parameters:    Size  Location     Type
		None
 Auto vars:     Size  Location     Type
		None
 Return value:  Size  Location     Type
		None               void
 Registers used:
		wreg, fsr2l, fsr2h, status,2, status,0, prodl, prodh, cstack
 Tracked objects:
		On entry : 
		On exit  : 
		Unchanged: 
 Data sizes:     COMRAM   BANK0   BANK1   BANK2   BANK3   BANK4   BANK5   BANK6   BANK7   BANK8   BANK9  BANK10  BANK11  BANK12
      Params:         0       0       0       0       0       0       0       0       0       0       0       0       0       0
      Locals:         0       0       0       0       0       0       0       0       0       0       0       0       0       0
      Temps:          0       0       1       0       0       0       0       0       0       0       0       0       0       0
      Totals:         0       0       1       0       0       0       0       0       0       0       0       0       0       0
Total ram usage:        1 bytes
 Hardware stack levels used:    1
 Hardware stack levels required when called:   11
 This function calls:
		_init_queue
 This function is called by:
		_main
 This function uses a non-reentrant model


 *************** function _OpenTimer1 *****************
 Defined at:
		line 17 in file "plib/Timers/t1open.c"
 Parameters:    Size  Location     Type
  config          1   51[BANK0 ] unsigned char 
 Auto vars:     Size  Location     Type
		None
 Return value:  Size  Location     Type
		None               void
 Registers used:
		wreg, status,2, status,0
 Tracked objects:
		On entry : 
		On exit  : 
		Unchanged: 
 Data sizes:     COMRAM   BANK0   BANK1   BANK2   BANK3   BANK4   BANK5   BANK6   BANK7   BANK8   BANK9  BANK10  BANK11  BANK12
      Params:         0       1       0       0       0       0       0       0       0       0       0       0       0       0
      Locals:         0       0       0       0       0       0       0       0       0       0       0       0       0       0
      Temps:          0       0       0       0       0       0       0       0       0       0       0       0       0       0
      Totals:         0       1       0       0       0       0       0       0       0       0       0       0       0       0
Total ram usage:        1 bytes
 Hardware stack levels used:    1
 Hardware stack levels required when called:   10
 This function calls:
		Nothing
 This function is called by:
		_main
 This function uses a non-reentrant model


 *************** function _i2c_configure_slave *****************
 Defined at:
		line 282 in file "../src/my_i2c.c"
 Parameters:    Size  Location     Type
  addr            1   51[BANK0 ] unsigned char 
 Auto vars:     Size  Location     Type
		None
 Return value:  Size  Location     Type
		None               void
 Registers used:
		wreg, status,2, status,0
 Tracked objects:
		On entry : 
		On exit  : 
		Unchanged: 
 Data sizes:     COMRAM   BANK0   BANK1   BANK2   BANK3   BANK4   BANK5   BANK6   BANK7   BANK8   BANK9  BANK10  BANK11  BANK12
      Params:         0       1       0       0       0       0       0       0       0       0       0       0       0       0
      Locals:         0       0       0       0       0       0       0       0       0       0       0       0       0       0
      Temps:          0       0       0       0       0       0       0       0       0       0       0       0       0       0
      Totals:         0       1       0       0       0       0       0       0       0       0       0       0       0       0
Total ram usage:        1 bytes
 Hardware stack levels used:    1
 Hardware stack levels required when called:   10
 This function calls:
		Nothing
 This function is called by:
		_main
 This function uses a non-reentrant model


 *************** function _OpenUSART *****************
 Defined at:
		line 74 in file "plib/USART/uopen.c"
 Parameters:    Size  Location     Type
  config          1    0[BANK1 ] unsigned char 
  spbrg           2    1[BANK1 ] unsigned int 
 Auto vars:     Size  Location     Type
		None
 Return value:  Size  Location     Type
		None               void
 Registers used:
		wreg, status,2
 Tracked objects:
		On entry : 
		On exit  : 
		Unchanged: 
 Data sizes:     COMRAM   BANK0   BANK1   BANK2   BANK3   BANK4   BANK5   BANK6   BANK7   BANK8   BANK9  BANK10  BANK11  BANK12
      Params:         0       0       3       0       0       0       0       0       0       0       0       0       0       0
      Locals:         0       0       0       0       0       0       0       0       0       0       0       0       0       0
      Temps:          0       0       0       0       0       0       0       0       0       0       0       0       0       0
      Totals:         0       0       3       0       0       0       0       0       0       0       0       0       0       0
Total ram usage:        3 bytes
 Hardware stack levels used:    1
 Hardware stack levels required when called:   10
 This function calls:
		Nothing
 This function is called by:
		_main
 This function uses a non-reentrant model


 *************** function _block_on_To_msgqueues *****************
 Defined at:
		line 258 in file "../src/messages.c"
 Parameters:    Size  Location     Type
		None
 Auto vars:     Size  Location     Type
		None
 Return value:  Size  Location     Type
		None               void
 Registers used:
		wreg, fsr2l, fsr2h, status,2, status,0, prodl, prodh, cstack
 Tracked objects:
		On entry : 
		On exit  : 
		Unchanged: 
 Data sizes:     COMRAM   BANK0   BANK1   BANK2   BANK3   BANK4   BANK5   BANK6   BANK7   BANK8   BANK9  BANK10  BANK11  BANK12
      Params:         0       0       0       0       0       0       0       0       0       0       0       0       0       0
      Locals:         0       0       0       0       0       0       0       0       0       0       0       0       0       0
      Temps:          0       0       1       0       0       0       0       0       0       0       0       0       0       0
      Totals:         0       0       1       0       0       0       0       0       0       0       0       0       0       0
Total ram usage:        1 bytes
 Hardware stack levels used:    1
 Hardware stack levels required when called:   13
 This function calls:
		_in_main
		_check_msg
		_Delay1KTCYx
 This function is called by:
		_main
 This function uses a non-reentrant model


 *************** function _in_main *****************
 Defined at:
		line 40 in file "../src/interrupts.c"
 Parameters:    Size  Location     Type
		None
 Auto vars:     Size  Location     Type
		None
 Return value:  Size  Location     Type
                  2    4[BANK1 ] int 
 Registers used:
		wreg, status,2, status,0, cstack
 Tracked objects:
		On entry : 
		On exit  : 
		Unchanged: 
 Data sizes:     COMRAM   BANK0   BANK1   BANK2   BANK3   BANK4   BANK5   BANK6   BANK7   BANK8   BANK9  BANK10  BANK11  BANK12
      Params:         0       0       2       0       0       0       0       0       0       0       0       0       0       0
      Locals:         0       0       0       0       0       0       0       0       0       0       0       0       0       0
      Temps:          0       0       0       0       0       0       0       0       0       0       0       0       0       0
      Totals:         0       0       2       0       0       0       0       0       0       0       0       0       0       0
Total ram usage:        2 bytes
 Hardware stack levels used:    1
 Hardware stack levels required when called:   12
 This function calls:
		_in_low_int
		_in_high_int
 This function is called by:
		_block_on_To_msgqueues
 This function uses a non-reentrant model


 *************** function _in_low_int *****************
 Defined at:
		line 30 in file "../src/interrupts.c"
 Parameters:    Size  Location     Type
		None
 Auto vars:     Size  Location     Type
		None
 Return value:  Size  Location     Type
                  2    2[BANK1 ] int 
 Registers used:
		wreg, status,2, status,0, cstack
 Tracked objects:
		On entry : 
		On exit  : 
		Unchanged: 
 Data sizes:     COMRAM   BANK0   BANK1   BANK2   BANK3   BANK4   BANK5   BANK6   BANK7   BANK8   BANK9  BANK10  BANK11  BANK12
      Params:         0       0       2       0       0       0       0       0       0       0       0       0       0       0
      Locals:         0       0       0       0       0       0       0       0       0       0       0       0       0       0
      Temps:          0       0       0       0       0       0       0       0       0       0       0       0       0       0
      Totals:         0       0       2       0       0       0       0       0       0       0       0       0       0       0
Total ram usage:        2 bytes
 Hardware stack levels used:    1
 Hardware stack levels required when called:   11
 This function calls:
		_in_high_int
 This function is called by:
		_in_main
 This function uses a non-reentrant model


 *************** function _in_high_int *****************
 Defined at:
		line 22 in file "../src/interrupts.c"
 Parameters:    Size  Location     Type
		None
 Auto vars:     Size  Location     Type
		None
 Return value:  Size  Location     Type
                  2    0[BANK1 ] int 
 Registers used:
		wreg, status,2
 Tracked objects:
		On entry : 
		On exit  : 
		Unchanged: 
 Data sizes:     COMRAM   BANK0   BANK1   BANK2   BANK3   BANK4   BANK5   BANK6   BANK7   BANK8   BANK9  BANK10  BANK11  BANK12
      Params:         0       0       2       0       0       0       0       0       0       0       0       0       0       0
      Locals:         0       0       0       0       0       0       0       0       0       0       0       0       0       0
      Temps:          0       0       0       0       0       0       0       0       0       0       0       0       0       0
      Totals:         0       0       2       0       0       0       0       0       0       0       0       0       0       0
Total ram usage:        2 bytes
 Hardware stack levels used:    1
 Hardware stack levels required when called:   10
 This function calls:
		Nothing
 This function is called by:
		_in_low_int
		_in_main
 This function uses a non-reentrant model


 *************** function _ToMainHigh_recvmsg *****************
 Defined at:
		line 135 in file "../src/messages.c"
 Parameters:    Size  Location     Type
  maxlength       1   24[BANK1 ] unsigned char 
  msgtype         2   25[BANK1 ] PTR unsigned char 
		 -> main@msgtype(1), 
  data            2   27[BANK1 ] PTR void 
		 -> main@msgbuffer(11), 
 Auto vars:     Size  Location     Type
		None
 Return value:  Size  Location     Type
                  1    wreg      char 
 Registers used:
		wreg, fsr1l, fsr1h, fsr2l, fsr2h, status,2, status,0, prodl, prodh, cstack
 Tracked objects:
		On entry : 
		On exit  : 
		Unchanged: 
 Data sizes:     COMRAM   BANK0   BANK1   BANK2   BANK3   BANK4   BANK5   BANK6   BANK7   BANK8   BANK9  BANK10  BANK11  BANK12
      Params:         0       0       5       0       0       0       0       0       0       0       0       0       0       0
      Locals:         0       0       0       0       0       0       0       0       0       0       0       0       0       0
      Temps:          0       0       0       0       0       0       0       0       0       0       0       0       0       0
      Totals:         0       0       5       0       0       0       0       0       0       0       0       0       0       0
Total ram usage:        5 bytes
 Hardware stack levels used:    1
 Hardware stack levels required when called:   12
 This function calls:
		_recv_msg
 This function is called by:
		_main
 This function uses a non-reentrant model


 *************** function _timer0_lthread *****************
 Defined at:
		line 9 in file "../src/timer0_thread.c"
 Parameters:    Size  Location     Type
  tptr            2    0[BANK1 ] PTR struct __timer0_thre
		 -> main@t0thread_data(2), 
  msgtype         2    2[BANK1 ] int 
  length          2    4[BANK1 ] int 
  msgbuffer       2    6[BANK1 ] PTR unsigned char 
		 -> main@msgbuffer(11), 
 Auto vars:     Size  Location     Type
  msgval          2    8[BANK1 ] PTR unsigned int 
		 -> main@msgbuffer(11), 
 Return value:  Size  Location     Type
                  2    0[BANK1 ] int 
 Registers used:
		None
 Tracked objects:
		On entry : 
		On exit  : 
		Unchanged: 
 Data sizes:     COMRAM   BANK0   BANK1   BANK2   BANK3   BANK4   BANK5   BANK6   BANK7   BANK8   BANK9  BANK10  BANK11  BANK12
      Params:         0       0       8       0       0       0       0       0       0       0       0       0       0       0
      Locals:         0       0       2       0       0       0       0       0       0       0       0       0       0       0
      Temps:          0       0       0       0       0       0       0       0       0       0       0       0       0       0
      Totals:         0       0      10       0       0       0       0       0       0       0       0       0       0       0
Total ram usage:       10 bytes
 Hardware stack levels used:    1
 Hardware stack levels required when called:   10
 This function calls:
		Nothing
 This function is called by:
		_main
 This function uses a non-reentrant model


 *************** function _start_i2c_slave_reply *****************
 Defined at:
		line 53 in file "../src/my_i2c.c"
 Parameters:    Size  Location     Type
  length          1    0[BANK1 ] unsigned char 
  msg             2    1[BANK1 ] PTR unsigned char 
		 -> main@msgbuffer(11), 
 Auto vars:     Size  Location     Type
		None
 Return value:  Size  Location     Type
		None               void
 Registers used:
		wreg, fsr1l, fsr1h, fsr2l, fsr2h, status,2, status,0, prodl, prodh
 Tracked objects:
		On entry : 
		On exit  : 
		Unchanged: 
 Data sizes:     COMRAM   BANK0   BANK1   BANK2   BANK3   BANK4   BANK5   BANK6   BANK7   BANK8   BANK9  BANK10  BANK11  BANK12
      Params:         0       0       3       0       0       0       0       0       0       0       0       0       0       0
      Locals:         0       0       0       0       0       0       0       0       0       0       0       0       0       0
      Temps:          0       0       2       0       0       0       0       0       0       0       0       0       0       0
      Totals:         0       0       5       0       0       0       0       0       0       0       0       0       0       0
Total ram usage:        5 bytes
 Hardware stack levels used:    1
 Hardware stack levels required when called:   10
 This function calls:
		Nothing
 This function is called by:
		_main
 This function uses a non-reentrant model


 *************** function _ToMainLow_recvmsg *****************
 Defined at:
		line 112 in file "../src/messages.c"
 Parameters:    Size  Location     Type
  maxlength       1   24[BANK1 ] unsigned char 
  msgtype         2   25[BANK1 ] PTR unsigned char 
		 -> main@msgtype(1), 
  data            2   27[BANK1 ] PTR void 
		 -> main@msgbuffer(11), 
 Auto vars:     Size  Location     Type
		None
 Return value:  Size  Location     Type
                  1    wreg      char 
 Registers used:
		wreg, fsr1l, fsr1h, fsr2l, fsr2h, status,2, status,0, prodl, prodh, cstack
 Tracked objects:
		On entry : 
		On exit  : 
		Unchanged: 
 Data sizes:     COMRAM   BANK0   BANK1   BANK2   BANK3   BANK4   BANK5   BANK6   BANK7   BANK8   BANK9  BANK10  BANK11  BANK12
      Params:         0       0       5       0       0       0       0       0       0       0       0       0       0       0
      Locals:         0       0       0       0       0       0       0       0       0       0       0       0       0       0
      Temps:          0       0       0       0       0       0       0       0       0       0       0       0       0       0
      Totals:         0       0       5       0       0       0       0       0       0       0       0       0       0       0
Total ram usage:        5 bytes
 Hardware stack levels used:    1
 Hardware stack levels required when called:   12
 This function calls:
		_recv_msg
 This function is called by:
		_main
 This function uses a non-reentrant model


 *************** function _timer1_lthread *****************
 Defined at:
		line 14 in file "../src/timer1_thread.c"
 Parameters:    Size  Location     Type
  tptr            2   25[BANK1 ] PTR struct __timer1_thre
		 -> main@t1thread_data(2), 
  msgtype         2   27[BANK1 ] int 
  length          2   29[BANK1 ] int 
  msgbuffer       2   31[BANK1 ] PTR unsigned char 
		 -> main@msgbuffer(11), 
 Auto vars:     Size  Location     Type
  retval          1   35[BANK1 ] char 
 Return value:  Size  Location     Type
                  2   25[BANK1 ] int 
 Registers used:
		wreg, fsr1l, fsr1h, fsr2l, fsr2h, status,2, status,0, prodl, prodh, cstack
 Tracked objects:
		On entry : 
		On exit  : 
		Unchanged: 
 Data sizes:     COMRAM   BANK0   BANK1   BANK2   BANK3   BANK4   BANK5   BANK6   BANK7   BANK8   BANK9  BANK10  BANK11  BANK12
      Params:         0       0       8       0       0       0       0       0       0       0       0       0       0       0
      Locals:         0       0       1       0       0       0       0       0       0       0       0       0       0       0
      Temps:          0       0       2       0       0       0       0       0       0       0       0       0       0       0
      Totals:         0       0      11       0       0       0       0       0       0       0       0       0       0       0
Total ram usage:       11 bytes
 Hardware stack levels used:    1
 Hardware stack levels required when called:   13
 This function calls:
		___lwmod
		_FromMainHigh_sendmsg
 This function is called by:
		_main
 This function uses a non-reentrant model


 *************** function _uart_lthread *****************
 Defined at:
		line 9 in file "../src/uart_thread.c"
 Parameters:    Size  Location     Type
  uptr            2    0[BANK1 ] PTR struct __uart_thread
		 -> main@uthread_data(2), 
  msgtype         2    2[BANK1 ] int 
  length          2    4[BANK1 ] int 
  msgbuffer       2    6[BANK1 ] PTR unsigned char 
		 -> main@msgbuffer(11), 
 Auto vars:     Size  Location     Type
		None
 Return value:  Size  Location     Type
                  2    0[BANK1 ] int 
 Registers used:
		wreg, fsr2l, fsr2h, status,2, status,0
 Tracked objects:
		On entry : 
		On exit  : 
		Unchanged: 
 Data sizes:     COMRAM   BANK0   BANK1   BANK2   BANK3   BANK4   BANK5   BANK6   BANK7   BANK8   BANK9  BANK10  BANK11  BANK12
      Params:         0       0       8       0       0       0       0       0       0       0       0       0       0       0
      Locals:         0       0       0       0       0       0       0       0       0       0       0       0       0       0
      Temps:          0       0       0       0       0       0       0       0       0       0       0       0       0       0
      Totals:         0       0       8       0       0       0       0       0       0       0       0       0       0       0
Total ram usage:        8 bytes
 Hardware stack levels used:    1
 Hardware stack levels required when called:   10
 This function calls:
		Nothing
 This function is called by:
		_main
 This function uses a non-reentrant model


 *************** function _init_queue *****************
 Defined at:
		line 14 in file "../src/messages.c"
 Parameters:    Size  Location     Type
  qptr            2    0[BANK1 ] PTR struct __msg_queue
		 -> FromMainHigh_MQ(54), FromMainLow_MQ(54), ToMainHigh_MQ(54), ToMainLow_MQ(54), 
 Auto vars:     Size  Location     Type
  i               1    2[BANK1 ] unsigned char 
 Return value:  Size  Location     Type
		None               void
 Registers used:
		wreg, fsr2l, fsr2h, status,2, status,0, prodl, prodh
 Tracked objects:
		On entry : 
		On exit  : 
		Unchanged: 
 Data sizes:     COMRAM   BANK0   BANK1   BANK2   BANK3   BANK4   BANK5   BANK6   BANK7   BANK8   BANK9  BANK10  BANK11  BANK12
      Params:         0       0       2       0       0       0       0       0       0       0       0       0       0       0
      Locals:         0       0       1       0       0       0       0       0       0       0       0       0       0       0
      Temps:          0       1       0       0       0       0       0       0       0       0       0       0       0       0
      Totals:         0       1       3       0       0       0       0       0       0       0       0       0       0       0
Total ram usage:        4 bytes
 Hardware stack levels used:    1
 Hardware stack levels required when called:   10
 This function calls:
		Nothing
 This function is called by:
		_init_queues
 This function uses a non-reentrant model


 *************** function _recv_msg *****************
 Defined at:
		line 63 in file "../src/messages.c"
 Parameters:    Size  Location     Type
  qptr            2   10[BANK1 ] PTR struct __msg_queue
		 -> FromMainHigh_MQ(54), FromMainLow_MQ(54), ToMainHigh_MQ(54), ToMainLow_MQ(54), 
  maxlength       1   12[BANK1 ] unsigned char 
  msgtype         2   13[BANK1 ] PTR unsigned char 
		 -> timer0_int_handler@msgtype(2), main@msgtype(1), 
  data            2   15[BANK1 ] PTR void 
		 -> timer0_int_handler@val(2), main@msgbuffer(11), 
 Auto vars:     Size  Location     Type
  qmsg            2   22[BANK1 ] PTR struct __msg
		 -> FromMainHigh_MQ(54), FromMainLow_MQ(54), ToMainHigh_MQ(54), ToMainLow_MQ(54), 
  tlength         2   20[BANK1 ] unsigned int 
  slot            1   19[BANK1 ] unsigned char 
 Return value:  Size  Location     Type
                  1    wreg      char 
 Registers used:
		wreg, fsr1l, fsr1h, fsr2l, fsr2h, status,2, status,0, prodl, prodh, cstack
 Tracked objects:
		On entry : 
		On exit  : 
		Unchanged: 
 Data sizes:     COMRAM   BANK0   BANK1   BANK2   BANK3   BANK4   BANK5   BANK6   BANK7   BANK8   BANK9  BANK10  BANK11  BANK12
      Params:         0       0       7       0       0       0       0       0       0       0       0       0       0       0
      Locals:         0       0       5       0       0       0       0       0       0       0       0       0       0       0
      Temps:          0       0       2       0       0       0       0       0       0       0       0       0       0       0
      Totals:         0       0      14       0       0       0       0       0       0       0       0       0       0       0
Total ram usage:       14 bytes
 Hardware stack levels used:    1
 Hardware stack levels required when called:   11
 This function calls:
		_memcpy
 This function is called by:
		_ToMainLow_recvmsg
		_ToMainHigh_recvmsg
		_FromMainLow_recvmsg
 This function uses a non-reentrant model


 *************** function _FromMainHigh_sendmsg *****************
 Defined at:
		line 174 in file "../src/messages.c"
 Parameters:    Size  Location     Type
  length          1   21[BANK1 ] unsigned char 
  msgtype         1   22[BANK1 ] unsigned char 
  data            2   23[BANK1 ] PTR void 
		 -> main@t1thread_data(2), 
 Auto vars:     Size  Location     Type
		None
 Return value:  Size  Location     Type
                  1    wreg      char 
 Registers used:
		wreg, fsr1l, fsr1h, fsr2l, fsr2h, status,2, status,0, prodl, prodh, cstack
 Tracked objects:
		On entry : 
		On exit  : 
		Unchanged: 
 Data sizes:     COMRAM   BANK0   BANK1   BANK2   BANK3   BANK4   BANK5   BANK6   BANK7   BANK8   BANK9  BANK10  BANK11  BANK12
      Params:         0       0       4       0       0       0       0       0       0       0       0       0       0       0
      Locals:         0       0       0       0       0       0       0       0       0       0       0       0       0       0
      Temps:          0       0       0       0       0       0       0       0       0       0       0       0       0       0
      Totals:         0       0       4       0       0       0       0       0       0       0       0       0       0       0
Total ram usage:        4 bytes
 Hardware stack levels used:    1
 Hardware stack levels required when called:   12
 This function calls:
		_send_msg
 This function is called by:
		_timer1_lthread
 This function uses a non-reentrant model


 *************** function _send_msg *****************
 Defined at:
		line 24 in file "../src/messages.c"
 Parameters:    Size  Location     Type
  qptr            2   10[BANK1 ] PTR struct __msg_queue
		 -> FromMainHigh_MQ(54), FromMainLow_MQ(54), ToMainHigh_MQ(54), ToMainLow_MQ(54), 
  length          1   12[BANK1 ] unsigned char 
  msgtype         1   13[BANK1 ] unsigned char 
  data            2   14[BANK1 ] PTR void 
		 -> timer0_int_handler@val(2), NULL(0), i2c_int_handler@error_buf(3), main@t1thread_data(2), 
		 -> main@ic(28), main@uc(5), 
 Auto vars:     Size  Location     Type
  qmsg            2   19[BANK1 ] PTR struct __msg
		 -> FromMainHigh_MQ(54), FromMainLow_MQ(54), ToMainHigh_MQ(54), ToMainLow_MQ(54), 
  tlength         2   16[BANK1 ] unsigned int 
  slot            1   18[BANK1 ] unsigned char 
 Return value:  Size  Location     Type
                  1    wreg      char 
 Registers used:
		wreg, fsr1l, fsr1h, fsr2l, fsr2h, status,2, status,0, prodl, prodh, cstack
 Tracked objects:
		On entry : 
		On exit  : 
		Unchanged: 
 Data sizes:     COMRAM   BANK0   BANK1   BANK2   BANK3   BANK4   BANK5   BANK6   BANK7   BANK8   BANK9  BANK10  BANK11  BANK12
      Params:         0       0       6       0       0       0       0       0       0       0       0       0       0       0
      Locals:         0       0       5       0       0       0       0       0       0       0       0       0       0       0
      Temps:          0       1       0       0       0       0       0       0       0       0       0       0       0       0
      Totals:         0       1      11       0       0       0       0       0       0       0       0       0       0       0
Total ram usage:       12 bytes
 Hardware stack levels used:    1
 Hardware stack levels required when called:   11
 This function calls:
		_memcpy
 This function is called by:
		_FromMainHigh_sendmsg
		_FromMainLow_sendmsg
 This function uses a non-reentrant model


 *************** function _memcpy *****************
 Defined at:
		line 13 in file "C:\Program Files\Microchip\xc8\v1.10\sources\memcpy.c"
 Parameters:    Size  Location     Type
  d1              2    0[BANK1 ] PTR void 
		 -> timer0_int_handler@val(2), FromMainHigh_MQ(54), FromMainLow_MQ(54), ToMainHigh_MQ(54), 
		 -> ToMainLow_MQ(54), main@msgbuffer(11), 
  s1              2    2[BANK1 ] PTR const void 
		 -> timer0_int_handler@val(2), NULL(0), i2c_int_handler@error_buf(3), FromMainHigh_MQ(54), 
		 -> FromMainLow_MQ(54), ToMainHigh_MQ(54), ToMainLow_MQ(54), main@t1thread_data(2), 
		 -> main@ic(28), main@uc(5), 
  n               2    4[BANK1 ] unsigned int 
 Auto vars:     Size  Location     Type
  s               2    8[BANK1 ] PTR const unsigned char 
		 -> timer0_int_handler@val(2), NULL(0), i2c_int_handler@error_buf(3), FromMainHigh_MQ(54), 
		 -> FromMainLow_MQ(54), ToMainHigh_MQ(54), ToMainLow_MQ(54), main@t1thread_data(2), 
		 -> main@ic(28), main@uc(5), 
  d               2    6[BANK1 ] PTR unsigned char 
		 -> timer0_int_handler@val(2), FromMainHigh_MQ(54), FromMainLow_MQ(54), ToMainHigh_MQ(54), 
		 -> ToMainLow_MQ(54), main@msgbuffer(11), 
 Return value:  Size  Location     Type
                  2    0[BANK1 ] PTR void 
 Registers used:
		wreg, fsr1l, fsr1h, fsr2l, fsr2h, status,2, status,0
 Tracked objects:
		On entry : 
		On exit  : 
		Unchanged: 
 Data sizes:     COMRAM   BANK0   BANK1   BANK2   BANK3   BANK4   BANK5   BANK6   BANK7   BANK8   BANK9  BANK10  BANK11  BANK12
      Params:         0       0       6       0       0       0       0       0       0       0       0       0       0       0
      Locals:         0       0       4       0       0       0       0       0       0       0       0       0       0       0
      Temps:          0       0       0       0       0       0       0       0       0       0       0       0       0       0
      Totals:         0       0      10       0       0       0       0       0       0       0       0       0       0       0
Total ram usage:       10 bytes
 Hardware stack levels used:    1
 Hardware stack levels required when called:   10
 This function calls:
		Nothing
 This function is called by:
		_send_msg
		_recv_msg
 This function uses a non-reentrant model


 *************** function _check_msg *****************
 Defined at:
		line 222 in file "../src/messages.c"
 Parameters:    Size  Location     Type
  qptr            2    0[BANK1 ] PTR struct __msg_queue
		 -> ToMainHigh_MQ(54), ToMainLow_MQ(54), 
 Auto vars:     Size  Location     Type
		None
 Return value:  Size  Location     Type
                  1    wreg      unsigned char 
 Registers used:
		wreg, fsr2l, fsr2h, status,2, status,0, prodl, prodh
 Tracked objects:
		On entry : 
		On exit  : 
		Unchanged: 
 Data sizes:     COMRAM   BANK0   BANK1   BANK2   BANK3   BANK4   BANK5   BANK6   BANK7   BANK8   BANK9  BANK10  BANK11  BANK12
      Params:         0       0       2       0       0       0       0       0       0       0       0       0       0       0
      Locals:         0       0       0       0       0       0       0       0       0       0       0       0       0       0
      Temps:          0       1       0       0       0       0       0       0       0       0       0       0       0       0
      Totals:         0       1       2       0       0       0       0       0       0       0       0       0       0       0
Total ram usage:        3 bytes
 Hardware stack levels used:    1
 Hardware stack levels required when called:   10
 This function calls:
		Nothing
 This function is called by:
		_block_on_To_msgqueues
 This function uses a non-reentrant model


 *************** function _Delay1KTCYx *****************
 Defined at:
		line 9 in file "../common/d1ktcyx.c"
 Parameters:    Size  Location     Type
  unit            1   51[BANK0 ] unsigned char 
 Auto vars:     Size  Location     Type
		None
 Return value:  Size  Location     Type
		None               void
 Registers used:
		wreg
 Tracked objects:
		On entry : 
		On exit  : 
		Unchanged: 
 Data sizes:     COMRAM   BANK0   BANK1   BANK2   BANK3   BANK4   BANK5   BANK6   BANK7   BANK8   BANK9  BANK10  BANK11  BANK12
      Params:         0       1       0       0       0       0       0       0       0       0       0       0       0       0
      Locals:         0       0       0       0       0       0       0       0       0       0       0       0       0       0
      Temps:          0       0       0       0       0       0       0       0       0       0       0       0       0       0
      Totals:         0       1       0       0       0       0       0       0       0       0       0       0       0       0
Total ram usage:        1 bytes
 Hardware stack levels used:    1
 Hardware stack levels required when called:   10
 This function calls:
		Nothing
 This function is called by:
		_block_on_To_msgqueues
 This function uses a non-reentrant model


 *************** function ___lwmod *****************
 Defined at:
		line 10 in file "C:\Program Files\Microchip\xc8\v1.10\sources\lwmod.c"
 Parameters:    Size  Location     Type
  dividend        2    0[BANK1 ] unsigned int 
  divisor         2    2[BANK1 ] unsigned int 
 Auto vars:     Size  Location     Type
  counter         1    4[BANK1 ] unsigned char 
 Return value:  Size  Location     Type
                  2    0[BANK1 ] unsigned int 
 Registers used:
		wreg, status,2, status,0
 Tracked objects:
		On entry : 
		On exit  : 
		Unchanged: 
 Data sizes:     COMRAM   BANK0   BANK1   BANK2   BANK3   BANK4   BANK5   BANK6   BANK7   BANK8   BANK9  BANK10  BANK11  BANK12
      Params:         0       0       4       0       0       0       0       0       0       0       0       0       0       0
      Locals:         0       0       1       0       0       0       0       0       0       0       0       0       0       0
      Temps:          0       1       0       0       0       0       0       0       0       0       0       0       0       0
      Totals:         0       1       5       0       0       0       0       0       0       0       0       0       0       0
Total ram usage:        6 bytes
 Hardware stack levels used:    1
 Hardware stack levels required when called:   10
 This function calls:
		Nothing
 This function is called by:
		_timer1_lthread
 This function uses a non-reentrant model


 *************** function _InterruptHandlerLow *****************
 Defined at:
		line 122 in file "../src/interrupts.c"
 Parameters:    Size  Location     Type
		None
 Auto vars:     Size  Location     Type
		None
 Return value:  Size  Location     Type
		None               void
 Registers used:
		wreg, fsr1l, fsr1h, fsr2l, fsr2h, status,2, status,0, prodl, prodh, cstack
 Tracked objects:
		On entry : 
		On exit  : 
		Unchanged: 
 Data sizes:     COMRAM   BANK0   BANK1   BANK2   BANK3   BANK4   BANK5   BANK6   BANK7   BANK8   BANK9  BANK10  BANK11  BANK12
      Params:         0       0       0       0       0       0       0       0       0       0       0       0       0       0
      Locals:         0       0       0       0       0       0       0       0       0       0       0       0       0       0
      Temps:         17       0       0       0       0       0       0       0       0       0       0       0       0       0
      Totals:        17       0       0       0       0       0       0       0       0       0       0       0       0       0
Total ram usage:       17 bytes
 Hardware stack levels used:    1
 Hardware stack levels required when called:    9
 This function calls:
		_timer1_int_handler
		_uart_recv_int_handler
 This function is called by:
		Interrupt level 1
 This function uses a non-reentrant model


 *************** function _timer1_int_handler *****************
 Defined at:
		line 34 in file "../src/user_interrupts.c"
 Parameters:    Size  Location     Type
		None
 Auto vars:     Size  Location     Type
  result          2   28[COMRAM] unsigned int 
 Return value:  Size  Location     Type
		None               void
 Registers used:
		wreg, fsr1l, fsr1h, fsr2l, fsr2h, status,2, status,0, prodl, prodh, cstack
 Tracked objects:
		On entry : 
		On exit  : 
		Unchanged: 
 Data sizes:     COMRAM   BANK0   BANK1   BANK2   BANK3   BANK4   BANK5   BANK6   BANK7   BANK8   BANK9  BANK10  BANK11  BANK12
      Params:         0       0       0       0       0       0       0       0       0       0       0       0       0       0
      Locals:         2       0       0       0       0       0       0       0       0       0       0       0       0       0
      Temps:          2       0       0       0       0       0       0       0       0       0       0       0       0       0
      Totals:         4       0       0       0       0       0       0       0       0       0       0       0       0       0
Total ram usage:        4 bytes
 Hardware stack levels used:    1
 Hardware stack levels required when called:    8
 This function calls:
		_ReadTimer1
		_ToMainLow_sendmsg
		_WriteTimer1
 This function is called by:
		_InterruptHandlerLow
 This function uses a non-reentrant model


 *************** function _uart_recv_int_handler *****************
 Defined at:
		line 11 in file "../src/my_uart.c"
 Parameters:    Size  Location     Type
		None
 Auto vars:     Size  Location     Type
		None
 Return value:  Size  Location     Type
		None               void
 Registers used:
		wreg, fsr1l, fsr1h, fsr2l, fsr2h, status,2, status,0, prodl, prodh, cstack
 Tracked objects:
		On entry : 
		On exit  : 
		Unchanged: 
 Data sizes:     COMRAM   BANK0   BANK1   BANK2   BANK3   BANK4   BANK5   BANK6   BANK7   BANK8   BANK9  BANK10  BANK11  BANK12
      Params:         0       0       0       0       0       0       0       0       0       0       0       0       0       0
      Locals:         0       0       0       0       0       0       0       0       0       0       0       0       0       0
      Temps:          2       0       0       0       0       0       0       0       0       0       0       0       0       0
      Totals:         2       0       0       0       0       0       0       0       0       0       0       0       0       0
Total ram usage:        2 bytes
 Hardware stack levels used:    1
 Hardware stack levels required when called:    8
 This function calls:
		_ReadUSART
		_ToMainLow_sendmsg
 This function is called by:
		_InterruptHandlerLow
 This function uses a non-reentrant model


 *************** function _ToMainLow_sendmsg *****************
 Defined at:
		line 103 in file "../src/messages.c"
 Parameters:    Size  Location     Type
  length          1   22[COMRAM] unsigned char 
  msgtype         1   23[COMRAM] unsigned char 
  data            2   24[COMRAM] PTR void 
		 -> NULL(0), main@uc(5), 
 Auto vars:     Size  Location     Type
		None
 Return value:  Size  Location     Type
                  1    wreg      char 
 Registers used:
		wreg, fsr1l, fsr1h, fsr2l, fsr2h, status,2, status,0, prodl, prodh, cstack
 Tracked objects:
		On entry : 
		On exit  : 
		Unchanged: 
 Data sizes:     COMRAM   BANK0   BANK1   BANK2   BANK3   BANK4   BANK5   BANK6   BANK7   BANK8   BANK9  BANK10  BANK11  BANK12
      Params:         4       0       0       0       0       0       0       0       0       0       0       0       0       0
      Locals:         0       0       0       0       0       0       0       0       0       0       0       0       0       0
      Temps:          0       0       0       0       0       0       0       0       0       0       0       0       0       0
      Totals:         4       0       0       0       0       0       0       0       0       0       0       0       0       0
Total ram usage:        4 bytes
 Hardware stack levels used:    1
 Hardware stack levels required when called:    7
 This function calls:
		i1_send_msg
 This function is called by:
		_uart_recv_int_handler
		_timer1_int_handler
 This function uses a non-reentrant model


 *************** function _ReadUSART *****************
 Defined at:
		line 16 in file "plib/USART/uread.c"
 Parameters:    Size  Location     Type
		None
 Auto vars:     Size  Location     Type
  data            1    0[COMRAM] unsigned char 
 Return value:  Size  Location     Type
                  1    wreg      unsigned char 
 Registers used:
		wreg, status,2, status,0
 Tracked objects:
		On entry : 
		On exit  : 
		Unchanged: 
 Data sizes:     COMRAM   BANK0   BANK1   BANK2   BANK3   BANK4   BANK5   BANK6   BANK7   BANK8   BANK9  BANK10  BANK11  BANK12
      Params:         0       0       0       0       0       0       0       0       0       0       0       0       0       0
      Locals:         1       0       0       0       0       0       0       0       0       0       0       0       0       0
      Temps:          0       0       0       0       0       0       0       0       0       0       0       0       0       0
      Totals:         1       0       0       0       0       0       0       0       0       0       0       0       0       0
Total ram usage:        1 bytes
 Hardware stack levels used:    1
 Hardware stack levels required when called:    5
 This function calls:
		Nothing
 This function is called by:
		_uart_recv_int_handler
 This function uses a non-reentrant model


 *************** function _ReadTimer1 *****************
 Defined at:
		line 16 in file "plib/Timers/t1read.c"
 Parameters:    Size  Location     Type
		None
 Auto vars:     Size  Location     Type
  timer           2    2[COMRAM] struct Timers
 Return value:  Size  Location     Type
                  2    0[COMRAM] unsigned int 
 Registers used:
		None
 Tracked objects:
		On entry : 
		On exit  : 
		Unchanged: 
 Data sizes:     COMRAM   BANK0   BANK1   BANK2   BANK3   BANK4   BANK5   BANK6   BANK7   BANK8   BANK9  BANK10  BANK11  BANK12
      Params:         2       0       0       0       0       0       0       0       0       0       0       0       0       0
      Locals:         2       0       0       0       0       0       0       0       0       0       0       0       0       0
      Temps:          0       0       0       0       0       0       0       0       0       0       0       0       0       0
      Totals:         4       0       0       0       0       0       0       0       0       0       0       0       0       0
Total ram usage:        4 bytes
 Hardware stack levels used:    1
 Hardware stack levels required when called:    5
 This function calls:
		Nothing
 This function is called by:
		_timer1_int_handler
 This function uses a non-reentrant model


 *************** function _WriteTimer1 *****************
 Defined at:
		line 15 in file "plib/Timers/t1write.c"
 Parameters:    Size  Location     Type
  timer1          2    0[COMRAM] unsigned int 
 Auto vars:     Size  Location     Type
  timer           2    2[COMRAM] struct Timers
 Return value:  Size  Location     Type
		None               void
 Registers used:
		None
 Tracked objects:
		On entry : 
		On exit  : 
		Unchanged: 
 Data sizes:     COMRAM   BANK0   BANK1   BANK2   BANK3   BANK4   BANK5   BANK6   BANK7   BANK8   BANK9  BANK10  BANK11  BANK12
      Params:         2       0       0       0       0       0       0       0       0       0       0       0       0       0
      Locals:         2       0       0       0       0       0       0       0       0       0       0       0       0       0
      Temps:          0       0       0       0       0       0       0       0       0       0       0       0       0       0
      Totals:         4       0       0       0       0       0       0       0       0       0       0       0       0       0
Total ram usage:        4 bytes
 Hardware stack levels used:    1
 Hardware stack levels required when called:    5
 This function calls:
		Nothing
 This function is called by:
		_timer1_int_handler
 This function uses a non-reentrant model


 *************** function i1_send_msg *****************
 Defined at:
		line 24 in file "../src/messages.c"
 Parameters:    Size  Location     Type
  send_msg        2   10[COMRAM] PTR struct __msg_queue
		 -> FromMainHigh_MQ(54), FromMainLow_MQ(54), ToMainHigh_MQ(54), ToMainLow_MQ(54), 
  send_msg        1   12[COMRAM] unsigned char 
  send_msg        1   13[COMRAM] unsigned char 
  send_msg        2   14[COMRAM] PTR void 
		 -> timer0_int_handler@val(2), NULL(0), i2c_int_handler@error_buf(3), main@t1thread_data(2), 
		 -> main@ic(28), main@uc(5), 
 Auto vars:     Size  Location     Type
  send_msg        2   20[COMRAM] PTR struct __msg
		 -> FromMainHigh_MQ(54), FromMainLow_MQ(54), ToMainHigh_MQ(54), ToMainLow_MQ(54), 
  send_msg        2   17[COMRAM] unsigned int 
  send_msg        1   19[COMRAM] unsigned char 
 Return value:  Size  Location     Type
                  1    wreg      char 
 Registers used:
		wreg, fsr1l, fsr1h, fsr2l, fsr2h, status,2, status,0, prodl, prodh, cstack
 Tracked objects:
		On entry : 
		On exit  : 
		Unchanged: 
 Data sizes:     COMRAM   BANK0   BANK1   BANK2   BANK3   BANK4   BANK5   BANK6   BANK7   BANK8   BANK9  BANK10  BANK11  BANK12
      Params:         6       0       0       0       0       0       0       0       0       0       0       0       0       0
      Locals:         5       0       0       0       0       0       0       0       0       0       0       0       0       0
      Temps:          1       0       0       0       0       0       0       0       0       0       0       0       0       0
      Totals:        12       0       0       0       0       0       0       0       0       0       0       0       0       0
Total ram usage:       12 bytes
 Hardware stack levels used:    1
 Hardware stack levels required when called:    6
 This function calls:
		i1_memcpy
 This function is called by:
		_ToMainLow_sendmsg
 This function uses a non-reentrant model


 *************** function i1_memcpy *****************
 Defined at:
		line 13 in file "C:\Program Files\Microchip\xc8\v1.10\sources\memcpy.c"
 Parameters:    Size  Location     Type
  memcpy          2    0[COMRAM] PTR void 
		 -> timer0_int_handler@val(2), FromMainHigh_MQ(54), FromMainLow_MQ(54), ToMainHigh_MQ(54), 
		 -> ToMainLow_MQ(54), main@msgbuffer(11), 
  memcpy          2    2[COMRAM] PTR const void 
		 -> timer0_int_handler@val(2), NULL(0), i2c_int_handler@error_buf(3), FromMainHigh_MQ(54), 
		 -> FromMainLow_MQ(54), ToMainHigh_MQ(54), ToMainLow_MQ(54), main@t1thread_data(2), 
		 -> main@ic(28), main@uc(5), 
  memcpy          2    4[COMRAM] unsigned int 
 Auto vars:     Size  Location     Type
  memcpy          2    8[COMRAM] PTR const unsigned char 
		 -> timer0_int_handler@val(2), NULL(0), i2c_int_handler@error_buf(3), FromMainHigh_MQ(54), 
		 -> FromMainLow_MQ(54), ToMainHigh_MQ(54), ToMainLow_MQ(54), main@t1thread_data(2), 
		 -> main@ic(28), main@uc(5), 
  memcpy          2    6[COMRAM] PTR unsigned char 
		 -> timer0_int_handler@val(2), FromMainHigh_MQ(54), FromMainLow_MQ(54), ToMainHigh_MQ(54), 
		 -> ToMainLow_MQ(54), main@msgbuffer(11), 
 Return value:  Size  Location     Type
                  2    0[COMRAM] PTR void 
 Registers used:
		wreg, fsr1l, fsr1h, fsr2l, fsr2h, status,2, status,0
 Tracked objects:
		On entry : 
		On exit  : 
		Unchanged: 
 Data sizes:     COMRAM   BANK0   BANK1   BANK2   BANK3   BANK4   BANK5   BANK6   BANK7   BANK8   BANK9  BANK10  BANK11  BANK12
      Params:         6       0       0       0       0       0       0       0       0       0       0       0       0       0
      Locals:         4       0       0       0       0       0       0       0       0       0       0       0       0       0
      Temps:          0       0       0       0       0       0       0       0       0       0       0       0       0       0
      Totals:        10       0       0       0       0       0       0       0       0       0       0       0       0       0
Total ram usage:       10 bytes
 Hardware stack levels used:    1
 Hardware stack levels required when called:    5
 This function calls:
		Nothing
 This function is called by:
		i1_send_msg
 This function uses a non-reentrant model


 *************** function _InterruptHandlerHigh *****************
 Defined at:
		line 83 in file "../src/interrupts.c"
 Parameters:    Size  Location     Type
		None
 Auto vars:     Size  Location     Type
		None
 Return value:  Size  Location     Type
		None               void
 Registers used:
		wreg, fsr1l, fsr1h, fsr2l, fsr2h, status,2, status,0, prodl, prodh, cstack
 Tracked objects:
		On entry : 
		On exit  : 
		Unchanged: 
 Data sizes:     COMRAM   BANK0   BANK1   BANK2   BANK3   BANK4   BANK5   BANK6   BANK7   BANK8   BANK9  BANK10  BANK11  BANK12
      Params:         0       0       0       0       0       0       0       0       0       0       0       0       0       0
      Locals:         0       0       0       0       0       0       0       0       0       0       0       0       0       0
      Temps:          0      14       0       0       0       0       0       0       0       0       0       0       0       0
      Totals:         0      14       0       0       0       0       0       0       0       0       0       0       0       0
Total ram usage:       14 bytes
 Hardware stack levels used:    1
 Hardware stack levels required when called:    4
 This function calls:
		_i2c_int_handler
		_timer0_int_handler
		_SleepIfOkay
 This function is called by:
		Interrupt level 2
 This function uses a non-reentrant model


 *************** function _i2c_int_handler *****************
 Defined at:
		line 100 in file "../src/my_i2c.c"
 Parameters:    Size  Location     Type
		None
 Auto vars:     Size  Location     Type
  error_buf       3   28[BANK0 ] unsigned char [3]
  data_read       1   36[BANK0 ] unsigned char 
  msg_ready       1   35[BANK0 ] unsigned char 
  msg_to_send     1   34[BANK0 ] unsigned char 
  i2c_data        1   33[BANK0 ] unsigned char 
  overrun_erro    1   32[BANK0 ] unsigned char 
  data_written    1   31[BANK0 ] unsigned char 
 Return value:  Size  Location     Type
		None               void
 Registers used:
		wreg, fsr1l, fsr1h, fsr2l, fsr2h, status,2, status,0, prodl, prodh, cstack
 Tracked objects:
		On entry : 
		On exit  : 
		Unchanged: 
 Data sizes:     COMRAM   BANK0   BANK1   BANK2   BANK3   BANK4   BANK5   BANK6   BANK7   BANK8   BANK9  BANK10  BANK11  BANK12
      Params:         0       0       0       0       0       0       0       0       0       0       0       0       0       0
      Locals:         0       9       0       0       0       0       0       0       0       0       0       0       0       0
      Temps:          0       2       0       0       0       0       0       0       0       0       0       0       0       0
      Totals:         0      11       0       0       0       0       0       0       0       0       0       0       0       0
Total ram usage:       11 bytes
 Hardware stack levels used:    1
 Hardware stack levels required when called:    3
 This function calls:
		_handle_start
		_ToMainHigh_sendmsg
 This function is called by:
		_InterruptHandlerHigh
 This function uses a non-reentrant model


 *************** function _timer0_int_handler *****************
 Defined at:
		line 16 in file "../src/user_interrupts.c"
 Parameters:    Size  Location     Type
		None
 Auto vars:     Size  Location     Type
  val             2   35[BANK0 ] unsigned int 
  msgtype         2   33[BANK0 ] int 
  length          2   31[BANK0 ] int 
 Return value:  Size  Location     Type
		None               void
 Registers used:
		wreg, fsr1l, fsr1h, fsr2l, fsr2h, status,2, status,0, prodl, prodh, cstack
 Tracked objects:
		On entry : 
		On exit  : 
		Unchanged: 
 Data sizes:     COMRAM   BANK0   BANK1   BANK2   BANK3   BANK4   BANK5   BANK6   BANK7   BANK8   BANK9  BANK10  BANK11  BANK12
      Params:         0       0       0       0       0       0       0       0       0       0       0       0       0       0
      Locals:         0       6       0       0       0       0       0       0       0       0       0       0       0       0
      Temps:          0       2       0       0       0       0       0       0       0       0       0       0       0       0
      Totals:         0       8       0       0       0       0       0       0       0       0       0       0       0       0
Total ram usage:        8 bytes
 Hardware stack levels used:    1
 Hardware stack levels required when called:    3
 This function calls:
		_WriteTimer0
		_FromMainHigh_recvmsg
		_ToMainHigh_sendmsg
 This function is called by:
		_InterruptHandlerHigh
 This function uses a non-reentrant model


 *************** function _SleepIfOkay *****************
 Defined at:
		line 228 in file "../src/messages.c"
 Parameters:    Size  Location     Type
		None
 Auto vars:     Size  Location     Type
		None
 Return value:  Size  Location     Type
		None               void
 Registers used:
		wreg, fsr2l, fsr2h, status,2, status,0, prodl, prodh, cstack
 Tracked objects:
		On entry : 
		On exit  : 
		Unchanged: 
 Data sizes:     COMRAM   BANK0   BANK1   BANK2   BANK3   BANK4   BANK5   BANK6   BANK7   BANK8   BANK9  BANK10  BANK11  BANK12
      Params:         0       0       0       0       0       0       0       0       0       0       0       0       0       0
      Locals:         0       0       0       0       0       0       0       0       0       0       0       0       0       0
      Temps:          0       0       0       0       0       0       0       0       0       0       0       0       0       0
      Totals:         0       0       0       0       0       0       0       0       0       0       0       0       0       0
Total ram usage:        0 bytes
 Hardware stack levels used:    1
 Hardware stack levels required when called:    2
 This function calls:
		i2_in_low_int
		i2_in_high_int
		i2_check_msg
		_enter_sleep_mode
 This function is called by:
		_InterruptHandlerHigh
 This function uses a non-reentrant model


 *************** function _ToMainHigh_sendmsg *****************
 Defined at:
		line 126 in file "../src/messages.c"
 Parameters:    Size  Location     Type
  length          1   22[BANK0 ] unsigned char 
  msgtype         1   23[BANK0 ] unsigned char 
  data            2   24[BANK0 ] PTR void 
		 -> timer0_int_handler@val(2), NULL(0), i2c_int_handler@error_buf(3), main@ic(28), 
 Auto vars:     Size  Location     Type
		None
 Return value:  Size  Location     Type
                  1    wreg      char 
 Registers used:
		wreg, fsr1l, fsr1h, fsr2l, fsr2h, status,2, status,0, prodl, prodh, cstack
 Tracked objects:
		On entry : 
		On exit  : 
		Unchanged: 
 Data sizes:     COMRAM   BANK0   BANK1   BANK2   BANK3   BANK4   BANK5   BANK6   BANK7   BANK8   BANK9  BANK10  BANK11  BANK12
      Params:         0       4       0       0       0       0       0       0       0       0       0       0       0       0
      Locals:         0       0       0       0       0       0       0       0       0       0       0       0       0       0
      Temps:          0       0       0       0       0       0       0       0       0       0       0       0       0       0
      Totals:         0       4       0       0       0       0       0       0       0       0       0       0       0       0
Total ram usage:        4 bytes
 Hardware stack levels used:    1
 Hardware stack levels required when called:    2
 This function calls:
		i2_send_msg
 This function is called by:
		_i2c_int_handler
		_timer0_int_handler
 This function uses a non-reentrant model


 *************** function _FromMainHigh_recvmsg *****************
 Defined at:
		line 183 in file "../src/messages.c"
 Parameters:    Size  Location     Type
  maxlength       1   24[BANK0 ] unsigned char 
  msgtype         2   25[BANK0 ] PTR unsigned char 
		 -> timer0_int_handler@msgtype(2), 
  data            2   27[BANK0 ] PTR void 
		 -> timer0_int_handler@val(2), 
 Auto vars:     Size  Location     Type
		None
 Return value:  Size  Location     Type
                  1    wreg      char 
 Registers used:
		wreg, fsr1l, fsr1h, fsr2l, fsr2h, status,2, status,0, prodl, prodh, cstack
 Tracked objects:
		On entry : 
		On exit  : 
		Unchanged: 
 Data sizes:     COMRAM   BANK0   BANK1   BANK2   BANK3   BANK4   BANK5   BANK6   BANK7   BANK8   BANK9  BANK10  BANK11  BANK12
      Params:         0       5       0       0       0       0       0       0       0       0       0       0       0       0
      Locals:         0       0       0       0       0       0       0       0       0       0       0       0       0       0
      Temps:          0       0       0       0       0       0       0       0       0       0       0       0       0       0
      Totals:         0       5       0       0       0       0       0       0       0       0       0       0       0       0
Total ram usage:        5 bytes
 Hardware stack levels used:    1
 Hardware stack levels required when called:    2
 This function calls:
		i2_recv_msg
 This function is called by:
		_timer0_int_handler
 This function uses a non-reentrant model


 *************** function _enter_sleep_mode *****************
 Defined at:
		line 202 in file "../src/messages.c"
 Parameters:    Size  Location     Type
		None
 Auto vars:     Size  Location     Type
		None
 Return value:  Size  Location     Type
		None               void
 Registers used:
		None
 Tracked objects:
		On entry : 
		On exit  : 
		Unchanged: 
 Data sizes:     COMRAM   BANK0   BANK1   BANK2   BANK3   BANK4   BANK5   BANK6   BANK7   BANK8   BANK9  BANK10  BANK11  BANK12
      Params:         0       0       0       0       0       0       0       0       0       0       0       0       0       0
      Locals:         0       0       0       0       0       0       0       0       0       0       0       0       0       0
      Temps:          0       0       0       0       0       0       0       0       0       0       0       0       0       0
      Totals:         0       0       0       0       0       0       0       0       0       0       0       0       0       0
Total ram usage:        0 bytes
 Hardware stack levels used:    1
 This function calls:
		Nothing
 This function is called by:
		_SleepIfOkay
 This function uses a non-reentrant model


 *************** function _handle_start *****************
 Defined at:
		line 71 in file "../src/my_i2c.c"
 Parameters:    Size  Location     Type
  data_read       1    0[BANK0 ] unsigned char 
 Auto vars:     Size  Location     Type
		None
 Return value:  Size  Location     Type
		None               void
 Registers used:
		wreg, fsr2l, fsr2h, status,2, status,0
 Tracked objects:
		On entry : 
		On exit  : 
		Unchanged: 
 Data sizes:     COMRAM   BANK0   BANK1   BANK2   BANK3   BANK4   BANK5   BANK6   BANK7   BANK8   BANK9  BANK10  BANK11  BANK12
      Params:         0       1       0       0       0       0       0       0       0       0       0       0       0       0
      Locals:         0       0       0       0       0       0       0       0       0       0       0       0       0       0
      Temps:          0       0       0       0       0       0       0       0       0       0       0       0       0       0
      Totals:         0       1       0       0       0       0       0       0       0       0       0       0       0       0
Total ram usage:        1 bytes
 Hardware stack levels used:    1
 This function calls:
		Nothing
 This function is called by:
		_i2c_int_handler
 This function uses a non-reentrant model


 *************** function _WriteTimer0 *****************
 Defined at:
		line 17 in file "plib/Timers/t0write.c"
 Parameters:    Size  Location     Type
  timer0          2    0[BANK0 ] unsigned int 
 Auto vars:     Size  Location     Type
  timer           2    2[BANK0 ] struct Timers
 Return value:  Size  Location     Type
		None               void
 Registers used:
		None
 Tracked objects:
		On entry : 
		On exit  : 
		Unchanged: 
 Data sizes:     COMRAM   BANK0   BANK1   BANK2   BANK3   BANK4   BANK5   BANK6   BANK7   BANK8   BANK9  BANK10  BANK11  BANK12
      Params:         0       2       0       0       0       0       0       0       0       0       0       0       0       0
      Locals:         0       2       0       0       0       0       0       0       0       0       0       0       0       0
      Temps:          0       0       0       0       0       0       0       0       0       0       0       0       0       0
      Totals:         0       4       0       0       0       0       0       0       0       0       0       0       0       0
Total ram usage:        4 bytes
 Hardware stack levels used:    1
 This function calls:
		Nothing
 This function is called by:
		_timer0_int_handler
 This function uses a non-reentrant model


 *************** function i2_in_low_int *****************
 Defined at:
		line 30 in file "../src/interrupts.c"
 Parameters:    Size  Location     Type
		None
 Auto vars:     Size  Location     Type
		None
 Return value:  Size  Location     Type
                  2    2[BANK0 ] int 
 Registers used:
		wreg, status,2, status,0, cstack
 Tracked objects:
		On entry : 
		On exit  : 
		Unchanged: 
 Data sizes:     COMRAM   BANK0   BANK1   BANK2   BANK3   BANK4   BANK5   BANK6   BANK7   BANK8   BANK9  BANK10  BANK11  BANK12
      Params:         0       2       0       0       0       0       0       0       0       0       0       0       0       0
      Locals:         0       0       0       0       0       0       0       0       0       0       0       0       0       0
      Temps:          0       0       0       0       0       0       0       0       0       0       0       0       0       0
      Totals:         0       2       0       0       0       0       0       0       0       0       0       0       0       0
Total ram usage:        2 bytes
 Hardware stack levels used:    1
 Hardware stack levels required when called:    1
 This function calls:
		i2_in_high_int
 This function is called by:
		_SleepIfOkay
 This function uses a non-reentrant model


 *************** function i2_in_high_int *****************
 Defined at:
		line 22 in file "../src/interrupts.c"
 Parameters:    Size  Location     Type
		None
 Auto vars:     Size  Location     Type
		None
 Return value:  Size  Location     Type
                  2    0[BANK0 ] int 
 Registers used:
		wreg, status,2
 Tracked objects:
		On entry : 
		On exit  : 
		Unchanged: 
 Data sizes:     COMRAM   BANK0   BANK1   BANK2   BANK3   BANK4   BANK5   BANK6   BANK7   BANK8   BANK9  BANK10  BANK11  BANK12
      Params:         0       2       0       0       0       0       0       0       0       0       0       0       0       0
      Locals:         0       0       0       0       0       0       0       0       0       0       0       0       0       0
      Temps:          0       0       0       0       0       0       0       0       0       0       0       0       0       0
      Totals:         0       2       0       0       0       0       0       0       0       0       0       0       0       0
Total ram usage:        2 bytes
 Hardware stack levels used:    1
 This function calls:
		Nothing
 This function is called by:
		_SleepIfOkay
		i2_in_low_int
 This function uses a non-reentrant model


 *************** function i2_send_msg *****************
 Defined at:
		line 24 in file "../src/messages.c"
 Parameters:    Size  Location     Type
  send_msg        2   10[BANK0 ] PTR struct __msg_queue
		 -> FromMainHigh_MQ(54), FromMainLow_MQ(54), ToMainHigh_MQ(54), ToMainLow_MQ(54), 
  send_msg        1   12[BANK0 ] unsigned char 
  send_msg        1   13[BANK0 ] unsigned char 
  send_msg        2   14[BANK0 ] PTR void 
		 -> timer0_int_handler@val(2), NULL(0), i2c_int_handler@error_buf(3), main@t1thread_data(2), 
		 -> main@ic(28), main@uc(5), 
 Auto vars:     Size  Location     Type
  send_msg        2   20[BANK0 ] PTR struct __msg
		 -> FromMainHigh_MQ(54), FromMainLow_MQ(54), ToMainHigh_MQ(54), ToMainLow_MQ(54), 
  send_msg        2   17[BANK0 ] unsigned int 
  send_msg        1   19[BANK0 ] unsigned char 
 Return value:  Size  Location     Type
                  1    wreg      char 
 Registers used:
		wreg, fsr1l, fsr1h, fsr2l, fsr2h, status,2, status,0, prodl, prodh, cstack
 Tracked objects:
		On entry : 
		On exit  : 
		Unchanged: 
 Data sizes:     COMRAM   BANK0   BANK1   BANK2   BANK3   BANK4   BANK5   BANK6   BANK7   BANK8   BANK9  BANK10  BANK11  BANK12
      Params:         0       6       0       0       0       0       0       0       0       0       0       0       0       0
      Locals:         0       5       0       0       0       0       0       0       0       0       0       0       0       0
      Temps:          0       1       0       0       0       0       0       0       0       0       0       0       0       0
      Totals:         0      12       0       0       0       0       0       0       0       0       0       0       0       0
Total ram usage:       12 bytes
 Hardware stack levels used:    1
 Hardware stack levels required when called:    1
 This function calls:
		i2_memcpy
 This function is called by:
		_ToMainHigh_sendmsg
 This function uses a non-reentrant model


 *************** function i2_recv_msg *****************
 Defined at:
		line 63 in file "../src/messages.c"
 Parameters:    Size  Location     Type
  recv_msg        2   10[BANK0 ] PTR struct __msg_queue
		 -> FromMainHigh_MQ(54), FromMainLow_MQ(54), ToMainHigh_MQ(54), ToMainLow_MQ(54), 
  recv_msg        1   12[BANK0 ] unsigned char 
  recv_msg        2   13[BANK0 ] PTR unsigned char 
		 -> timer0_int_handler@msgtype(2), main@msgtype(1), 
  recv_msg        2   15[BANK0 ] PTR void 
		 -> timer0_int_handler@val(2), main@msgbuffer(11), 
 Auto vars:     Size  Location     Type
  recv_msg        2   22[BANK0 ] PTR struct __msg
		 -> FromMainHigh_MQ(54), FromMainLow_MQ(54), ToMainHigh_MQ(54), ToMainLow_MQ(54), 
  recv_msg        2   20[BANK0 ] unsigned int 
  recv_msg        1   19[BANK0 ] unsigned char 
 Return value:  Size  Location     Type
                  1    wreg      char 
 Registers used:
		wreg, fsr1l, fsr1h, fsr2l, fsr2h, status,2, status,0, prodl, prodh, cstack
 Tracked objects:
		On entry : 
		On exit  : 
		Unchanged: 
 Data sizes:     COMRAM   BANK0   BANK1   BANK2   BANK3   BANK4   BANK5   BANK6   BANK7   BANK8   BANK9  BANK10  BANK11  BANK12
      Params:         0       7       0       0       0       0       0       0       0       0       0       0       0       0
      Locals:         0       5       0       0       0       0       0       0       0       0       0       0       0       0
      Temps:          0       2       0       0       0       0       0       0       0       0       0       0       0       0
      Totals:         0      14       0       0       0       0       0       0       0       0       0       0       0       0
Total ram usage:       14 bytes
 Hardware stack levels used:    1
 Hardware stack levels required when called:    1
 This function calls:
		i2_memcpy
 This function is called by:
		_FromMainHigh_recvmsg
 This function uses a non-reentrant model


 *************** function i2_check_msg *****************
 Defined at:
		line 222 in file "../src/messages.c"
 Parameters:    Size  Location     Type
  check_msg       2    0[BANK0 ] PTR struct __msg_queue
		 -> ToMainHigh_MQ(54), ToMainLow_MQ(54), 
 Auto vars:     Size  Location     Type
		None
 Return value:  Size  Location     Type
                  1    wreg      unsigned char 
 Registers used:
		wreg, fsr2l, fsr2h, status,2, status,0, prodl, prodh
 Tracked objects:
		On entry : 
		On exit  : 
		Unchanged: 
 Data sizes:     COMRAM   BANK0   BANK1   BANK2   BANK3   BANK4   BANK5   BANK6   BANK7   BANK8   BANK9  BANK10  BANK11  BANK12
      Params:         0       2       0       0       0       0       0       0       0       0       0       0       0       0
      Locals:         0       0       0       0       0       0       0       0       0       0       0       0       0       0
      Temps:          0       1       0       0       0       0       0       0       0       0       0       0       0       0
      Totals:         0       3       0       0       0       0       0       0       0       0       0       0       0       0
Total ram usage:        3 bytes
 Hardware stack levels used:    1
 This function calls:
		Nothing
 This function is called by:
		_SleepIfOkay
 This function uses a non-reentrant model


 *************** function i2_memcpy *****************
 Defined at:
		line 13 in file "C:\Program Files\Microchip\xc8\v1.10\sources\memcpy.c"
 Parameters:    Size  Location     Type
  memcpy          2    0[BANK0 ] PTR void 
		 -> timer0_int_handler@val(2), FromMainHigh_MQ(54), FromMainLow_MQ(54), ToMainHigh_MQ(54), 
		 -> ToMainLow_MQ(54), main@msgbuffer(11), 
  memcpy          2    2[BANK0 ] PTR const void 
		 -> timer0_int_handler@val(2), NULL(0), i2c_int_handler@error_buf(3), FromMainHigh_MQ(54), 
		 -> FromMainLow_MQ(54), ToMainHigh_MQ(54), ToMainLow_MQ(54), main@t1thread_data(2), 
		 -> main@ic(28), main@uc(5), 
  memcpy          2    4[BANK0 ] unsigned int 
 Auto vars:     Size  Location     Type
  memcpy          2    8[BANK0 ] PTR const unsigned char 
		 -> timer0_int_handler@val(2), NULL(0), i2c_int_handler@error_buf(3), FromMainHigh_MQ(54), 
		 -> FromMainLow_MQ(54), ToMainHigh_MQ(54), ToMainLow_MQ(54), main@t1thread_data(2), 
		 -> main@ic(28), main@uc(5), 
  memcpy          2    6[BANK0 ] PTR unsigned char 
		 -> timer0_int_handler@val(2), FromMainHigh_MQ(54), FromMainLow_MQ(54), ToMainHigh_MQ(54), 
		 -> ToMainLow_MQ(54), main@msgbuffer(11), 
 Return value:  Size  Location     Type
                  2    0[BANK0 ] PTR void 
 Registers used:
		wreg, fsr1l, fsr1h, fsr2l, fsr2h, status,2, status,0
 Tracked objects:
		On entry : 
		On exit  : 
		Unchanged: 
 Data sizes:     COMRAM   BANK0   BANK1   BANK2   BANK3   BANK4   BANK5   BANK6   BANK7   BANK8   BANK9  BANK10  BANK11  BANK12
      Params:         0       6       0       0       0       0       0       0       0       0       0       0       0       0
      Locals:         0       4       0       0       0       0       0       0       0       0       0       0       0       0
      Temps:          0       0       0       0       0       0       0       0       0       0       0       0       0       0
      Totals:         0      10       0       0       0       0       0       0       0       0       0       0       0       0
Total ram usage:       10 bytes
 Hardware stack levels used:    1
 This function calls:
		Nothing
 This function is called by:
		i2_send_msg
		i2_recv_msg
 This function uses a non-reentrant model



MODULE INFORMATION

Module		Function		Class		Link	Load	Size
C:\Program Files\Microchip\xc8\v1.10\sources\memcpy.c
		_memcpy        		CODE           	1ADC	0000	86

C:\Program Files\Microchip\xc8\v1.10\sources\memcpy.c estimated size: 86

plib/Timers/t1open.c
		_OpenTimer1    		CODE           	1C6E	0000	62

plib/Timers/t1open.c estimated size: 62

../src/user_interrupts.c
		_timer0_int_han		CODE           	133E	0000	200
		_timer1_int_han		CODE           	1B88	0000	80

../src/user_interrupts.c estimated size: 280

../src/timer0_thread.c
		_timer0_lthread		CODE           	1F48	0000	10

../src/timer0_thread.c estimated size: 10

shared
		i1_send_msg    		CODE           	1570	0000	178
		i2_send_msg    		CODE           	107E	0000	262
		i2_in_high_int 		CODE           	1EEC	0000	20
		i2_recv_msg    		CODE           	0D26	0000	320
		__initializatio		CODE           	1E3C	0000	32
		i2_in_low_int  		CODE           	1A26	0000	94
		i1_memcpy      		CODE           	1C26	0000	72
		i2_memcpy      		CODE           	1B32	0000	86
		i2_check_msg   		CODE           	1D1C	0000	56

shared estimated size: 1120

plib/USART/uopen.c
		_OpenUSART     		CODE           	14BC	0000	180

plib/USART/uopen.c estimated size: 180

../src/my_i2c.c
		_start_i2c_slav		CODE           	0E66	0000	274
		_handle_start  		CODE           	1264	0000	218
		_i2c_configure_		CODE           	1E62	0000	36
		_init_i2c      		CODE           	1966	0000	98
		_i2c_int_handle		CODE           	00C6	0000	1988

../src/my_i2c.c estimated size: 2614

../src/timer1_thread.c
		_timer1_lthread		CODE           	17E8	0000	134
		_init_timer1_lt		CODE           	1F00	0000	18

../src/timer1_thread.c estimated size: 152

plib/Timers/t0write.c
		_WriteTimer0   		CODE           	1F36	0000	18

plib/Timers/t0write.c estimated size: 18

plib/Timers/t1write.c
		_WriteTimer1   		CODE           	1F24	0000	18

plib/Timers/t1write.c estimated size: 18

C:\Program Files\Microchip\xc8\v1.10\sources\lwmod.c
		___lwmod       		CODE           	1622	0000	160

C:\Program Files\Microchip\xc8\v1.10\sources\lwmod.c estimated size: 160

../src/uart_thread.c
		_uart_lthread  		CODE           	1BD8	0000	78

../src/uart_thread.c estimated size: 78

../common/d1ktcyx.c
		_Delay1KTCYx   		CODE           	1ED8	0000	20

../common/d1ktcyx.c estimated size: 20

../src/interrupts.c
		_enable_interru		CODE           	1F52	0000	8
		_in_low_int    		CODE           	19C8	0000	94
		_in_main       		CODE           	1A84	0000	88
		_in_high_int   		CODE           	1EC4	0000	20
		_InterruptHandl		CODE           	0018	0000	170
		_InterruptHandl		CODE           	0008	0000	6112

../src/interrupts.c estimated size: 6492

plib/Timers/t1read.c
		_ReadTimer1    		CODE           	1F12	0000	18

plib/Timers/t1read.c estimated size: 18

../src/my_uart.c
		_init_uart_recv		CODE           	1EAA	0000	26
		_uart_recv_int_		CODE           	1406	0000	182

../src/my_uart.c estimated size: 208

../src/messages.c
		_ToMainHigh_sen		CODE           	1E10	0000	44
		_ToMainHigh_rec		CODE           	1D54	0000	48
		_block_on_To_ms		CODE           	1184	0000	224
		_check_msg     		CODE           	1CAC	0000	56
		_ToMainLow_send		CODE           	1E86	0000	36
		_ToMainLow_recv		CODE           	1D84	0000	48
		_FromMainHigh_s		CODE           	1DE4	0000	44
		_enter_sleep_mo		CODE           	1F5A	0000	6
		_send_msg      		CODE           	0F78	0000	262
		_FromMainHigh_r		CODE           	1DB4	0000	48
		_init_queue    		CODE           	186E	0000	134
		_init_queues   		CODE           	18F4	0000	114
		_recv_msg      		CODE           	0BE6	0000	320
		_SleepIfOkay   		CODE           	16C2	0000	154

../src/messages.c estimated size: 1538

plib/USART/uread.c
		_ReadUSART     		CODE           	1CE4	0000	56

plib/USART/uread.c estimated size: 56

../src/main.c
		_main          		CODE           	088A	0000	860

../src/main.c estimated size: 860

